   1               		.file	"zipper.c"
   2               	__SREG__ = 0x3f
   3               	__SP_H__ = 0x3e
   4               	__SP_L__ = 0x3d
   5               	__CCP__  = 0x34
   6               	__tmp_reg__ = 0
   7               	__zero_reg__ = 1
  15               	.Ltext0:
  16               		.section	.text.Reconfigure_SPI_for_LMS,"ax",@progbits
  17               	.global	Reconfigure_SPI_for_LMS
  19               	Reconfigure_SPI_for_LMS:
  20               	.LFB41:
  21               	.LSM0:
  22               	/* prologue: function */
  23               	/* frame size = 0 */
  24               	.LSM1:
  25 0000 8091 0000 		lds r24,LineCoding+4
  26 0004 8230      		cpi r24,lo8(2)
  27 0006 01F0      		breq .L2
  28 0008 20E5      		ldi r18,lo8(80)
  29               	.LVL0:
  30 000a 00C0      		rjmp .L3
  31               	.LVL1:
  32               	.L2:
  33 000c 20E7      		ldi r18,lo8(112)
  34               	.LVL2:
  35               	.L3:
  36               	.LSM2:
  37 000e 8091 0000 		lds r24,LineCoding+6
  38 0012 8530      		cpi r24,lo8(5)
  39 0014 01F4      		brne .L4
  40               	.LSM3:
  41 0016 2C60      		ori r18,lo8(12)
  42 0018 00C0      		rjmp .L5
  43               	.L4:
  44               	.LSM4:
  45 001a 8630      		cpi r24,lo8(6)
  46 001c 01F4      		brne .L6
  47               	.LSM5:
  48 001e 2860      		ori r18,lo8(8)
  49 0020 00C0      		rjmp .L5
  50               	.L6:
  51               	.LSM6:
  52 0022 8730      		cpi r24,lo8(7)
  53 0024 01F4      		brne .L5
  54               	.LSM7:
  55 0026 2460      		ori r18,lo8(4)
  56               	.L5:
  57               	.LSM8:
  58 0028 8091 0000 		lds r24,LineCoding
  59 002c 9091 0000 		lds r25,(LineCoding)+1
  60 0030 A091 0000 		lds r26,(LineCoding)+2
  61 0034 B091 0000 		lds r27,(LineCoding)+3
  62 0038 8038      		cpi r24,lo8(9600)
  63 003a 35E2      		ldi r19,hi8(9600)
  64 003c 9307      		cpc r25,r19
  65 003e 30E0      		ldi r19,hlo8(9600)
  66 0040 A307      		cpc r26,r19
  67 0042 30E0      		ldi r19,hhi8(9600)
  68 0044 B307      		cpc r27,r19
  69 0046 01F0      		breq .L14
  70               	.L7:
  71               	.LSM9:
  72 0048 8034      		cpi r24,lo8(14400)
  73 004a 38E3      		ldi r19,hi8(14400)
  74 004c 9307      		cpc r25,r19
  75 004e 30E0      		ldi r19,hlo8(14400)
  76 0050 A307      		cpc r26,r19
  77 0052 30E0      		ldi r19,hhi8(14400)
  78 0054 B307      		cpc r27,r19
  79 0056 01F0      		breq .L9
  80               	.LSM10:
  81 0058 8030      		cpi r24,lo8(19200)
  82 005a 3BE4      		ldi r19,hi8(19200)
  83 005c 9307      		cpc r25,r19
  84 005e 30E0      		ldi r19,hlo8(19200)
  85 0060 A307      		cpc r26,r19
  86 0062 30E0      		ldi r19,hhi8(19200)
  87 0064 B307      		cpc r27,r19
  88 0066 01F4      		brne .L10
  89               	.LSM11:
  90 0068 2160      		ori r18,lo8(1)
  91 006a 00C0      		rjmp .L14
  92               	.L10:
  93               	.LSM12:
  94 006c 8030      		cpi r24,lo8(38400)
  95 006e 36E9      		ldi r19,hi8(38400)
  96 0070 9307      		cpc r25,r19
  97 0072 30E0      		ldi r19,hlo8(38400)
  98 0074 A307      		cpc r26,r19
  99 0076 30E0      		ldi r19,hhi8(38400)
 100 0078 B307      		cpc r27,r19
 101 007a 01F4      		brne .L11
 102               	.LSM13:
 103 007c 2160      		ori r18,lo8(1)
 104 007e 00C0      		rjmp .L9
 105               	.L11:
 106               	.LSM14:
 107 0080 8030      		cpi r24,lo8(57600)
 108 0082 31EE      		ldi r19,hi8(57600)
 109 0084 9307      		cpc r25,r19
 110 0086 30E0      		ldi r19,hlo8(57600)
 111 0088 A307      		cpc r26,r19
 112 008a 30E0      		ldi r19,hhi8(57600)
 113 008c B307      		cpc r27,r19
 114 008e 01F4      		brne .L12
 115               	.LSM15:
 116 0090 2260      		ori r18,lo8(2)
 117               	.L14:
 118 0092 81E0      		ldi r24,lo8(1)
 119               	.LVL3:
 120 0094 00C0      		rjmp .L8
 121               	.LVL4:
 122               	.L12:
 123               	.LSM16:
 124 0096 8050      		subi r24,lo8(115200)
 125 0098 924C      		sbci r25,hi8(115200)
 126 009a A140      		sbci r26,hlo8(115200)
 127 009c B040      		sbci r27,hhi8(115200)
 128 009e 01F4      		brne .L9
 129               	.LSM17:
 130 00a0 2260      		ori r18,lo8(2)
 131               	.L9:
 132 00a2 80E0      		ldi r24,lo8(0)
 133               	.LVL5:
 134               	.L8:
 135               	.LSM18:
 136 00a4 2CBD      		out 76-32,r18
 137               	.LSM19:
 138 00a6 8DBD      		out 77-32,r24
 139               	/* epilogue start */
 140               	.LSM20:
 141 00a8 0895      		ret
 142               	.LFE41:
 144               		.section	.text.Delay_us,"ax",@progbits
 145               	.global	Delay_us
 147               	Delay_us:
 148               	.LFB42:
 149               	.LSM21:
 150               	.LVL6:
 151               	/* prologue: function */
 152               	/* frame size = 0 */
 153 0000 00C0      		rjmp .L16
 154               	.L17:
 155               	.LSM22:
 156               	/* #APP */
 157               	 ;  643 "zipper.c" 1
 158 0002 0000      		nop
 159               	 ;  0 "" 2
 160               	.LSM23:
 161               	 ;  644 "zipper.c" 1
 162 0004 0000      		nop
 163               	 ;  0 "" 2
 164               	.LSM24:
 165               	 ;  645 "zipper.c" 1
 166 0006 0000      		nop
 167               	 ;  0 "" 2
 168               	/* #NOAPP */
 169 0008 0197      		sbiw r24,1
 170               	.LVL7:
 171               	.L16:
 172               	.LSM25:
 173 000a 0097      		sbiw r24,0
 174 000c 01F4      		brne .L17
 175               	/* epilogue start */
 176               	.LSM26:
 177 000e 0895      		ret
 178               	.LFE42:
 180               		.section	.text.Check_many_blocks,"ax",@progbits
 181               	.global	Check_many_blocks
 183               	Check_many_blocks:
 184               	.LFB43:
 185               	.LSM27:
 186               	.LVL8:
 187               	/* prologue: function */
 188               	/* frame size = 0 */
 189 0000 682F      		mov r22,r24
 190               	.LSM28:
 191 0002 E091 0000 		lds r30,LMS_Ctrl_Packet_Rx
 192 0006 F091 0000 		lds r31,(LMS_Ctrl_Packet_Rx)+1
 193 000a 88E3      		ldi r24,lo8(56)
 194               	.LVL9:
 195 000c 0E94 0000 		call __udivmodqi4
 196               	.LVL10:
 197 0010 9281      		ldd r25,Z+2
 198 0012 8917      		cp r24,r25
 199 0014 00F0      		brlo .L20
 200 0016 80E0      		ldi r24,lo8(0)
 201 0018 0895      		ret
 202               	.L20:
 203               	.LSM29:
 204 001a E091 0000 		lds r30,LMS_Ctrl_Packet_Tx
 205 001e F091 0000 		lds r31,(LMS_Ctrl_Packet_Tx)+1
 206 0022 84E0      		ldi r24,lo8(4)
 207 0024 8183      		std Z+1,r24
 208 0026 81E0      		ldi r24,lo8(1)
 209               	.LSM30:
 210 0028 0895      		ret
 211               	.LFE43:
 213               		.section	.text.Search_reg_idx,"ax",@progbits
 214               	.global	Search_reg_idx
 216               	Search_reg_idx:
 217               	.LFB44:
 218               	.LSM31:
 219               	.LVL11:
 220               	/* prologue: function */
 221               	/* frame size = 0 */
 222 0000 982F      		mov r25,r24
 223               	.LSM32:
 224 0002 8093 0000 		sts reg_idx,r24
 225 0006 A091 0000 		lds r26,LMS_Ctrl_Packet_Rx
 226 000a B091 0000 		lds r27,(LMS_Ctrl_Packet_Rx)+1
 227 000e 1296      		adiw r26,2
 228 0010 3C91      		ld r19,X
 229 0012 1297      		sbiw r26,2
 230 0014 00C0      		rjmp .L24
 231               	.LVL12:
 232               	.L27:
 233 0016 292F      		mov r18,r25
 234 0018 2F5F      		subi r18,lo8(-(1))
 235               	.LVL13:
 236               	.LSM33:
 237 001a FD01      		movw r30,r26
 238 001c E90F      		add r30,r25
 239 001e F11D      		adc r31,__zero_reg__
 240 0020 8085      		ldd r24,Z+8
 241 0022 8617      		cp r24,r22
 242 0024 01F4      		brne .L25
 243               	.LVL14:
 244 0026 9093 0000 		sts reg_idx,r25
 245 002a 81E0      		ldi r24,lo8(1)
 246 002c 0895      		ret
 247               	.L25:
 248 002e 922F      		mov r25,r18
 249               	.LVL15:
 250               	.L24:
 251               	.LSM34:
 252 0030 9317      		cp r25,r19
 253 0032 00F0      		brlo .L27
 254 0034 9093 0000 		sts reg_idx,r25
 255 0038 80E0      		ldi r24,lo8(0)
 256               	.LSM35:
 257 003a 0895      		ret
 258               	.LFE44:
 260               		.section	.text.Exp_board_detection,"ax",@progbits
 261               	.global	Exp_board_detection
 263               	Exp_board_detection:
 264               	.LFB45:
 265               	.LSM36:
 266               	/* prologue: function */
 267               	/* frame size = 0 */
 268               	.LSM37:
 269 0000 1092 0000 		sts Exp_board_id,__zero_reg__
 270               	.LSM38:
 271 0004 2898      		cbi 37-32,0
 272               	.LBB47:
 273               	.LBB48:
 274               	.LSM39:
 275 0006 84E0      		ldi r24,lo8(4)
 276 0008 8EBD      		out 78-32,r24
 277               	.L30:
 278               	.LSM40:
 279 000a 0DB4      		in __tmp_reg__,77-32
 280 000c 07FE      		sbrs __tmp_reg__,7
 281 000e 00C0      		rjmp .L30
 282               	.LBE48:
 283               	.LBE47:
 284               	.LBB49:
 285               	.LBB50:
 286               	.LSM41:
 287 0010 1EBC      		out 78-32,__zero_reg__
 288               	.L31:
 289               	.LSM42:
 290 0012 0DB4      		in __tmp_reg__,77-32
 291 0014 07FE      		sbrs __tmp_reg__,7
 292 0016 00C0      		rjmp .L31
 293               	.LSM43:
 294 0018 8EB5      		in r24,78-32
 295               	.LVL16:
 296               	.LBE50:
 297               	.LBE49:
 298               	.LSM44:
 299 001a 289A      		sbi 37-32,0
 300               	.LSM45:
 301 001c 8150      		subi r24,lo8(-(-1))
 302 001e 8E3F      		cpi r24,lo8(-2)
 303 0020 00F4      		brsh .L32
 304 0022 83E0      		ldi r24,lo8(3)
 305               	.LVL17:
 306 0024 8093 0000 		sts Exp_board_id,r24
 307               	.LVL18:
 308               	.L32:
 309               	.LSM46:
 310 0028 86E2      		ldi r24,lo8(38)
 311               	.LVL19:
 312 002a 6FE1      		ldi r22,lo8(31)
 313 002c 0E94 0000 		call MIPI_RFFE_Read
 314               	.LSM47:
 315 0030 8632      		cpi r24,lo8(38)
 316 0032 01F4      		brne .L34
 317 0034 84E0      		ldi r24,lo8(4)
 318 0036 8093 0000 		sts Exp_board_id,r24
 319               	.L34:
 320 003a 0895      		ret
 321               	.LFE45:
 323               		.section	.text.Main_Task,"ax",@progbits
 324               	.global	Main_Task
 326               	Main_Task:
 327               	.LFB40:
 328               	.LSM48:
 329 0000 BF92      		push r11
 330 0002 CF92      		push r12
 331 0004 DF92      		push r13
 332 0006 EF92      		push r14
 333 0008 FF92      		push r15
 334 000a 0F93      		push r16
 335 000c 1F93      		push r17
 336 000e CF93      		push r28
 337 0010 DF93      		push r29
 338               	/* prologue: function */
 339               	/* frame size = 0 */
 340               	.LSM49:
 341 0012 8091 0000 		lds r24,Rx_Buffer+132
 342 0016 8034      		cpi r24,lo8(64)
 343 0018 01F0      		breq .+2
 344 001a 00C0      		rjmp .L108
 345               	.LSM50:
 346 001c 2F9A      		sbi 37-32,7
 347               	.LSM51:
 348 001e 1092 0000 		sts count,__zero_reg__
 349 0022 00C0      		rjmp .L39
 350               	.L40:
 351               	.LSM52:
 352 0024 80E0      		ldi r24,lo8(Rx_Buffer)
 353 0026 90E0      		ldi r25,hi8(Rx_Buffer)
 354 0028 0E94 0000 		call Buffer_GetElement
 355 002c E12F      		mov r30,r17
 356 002e F0E0      		ldi r31,lo8(0)
 357 0030 E050      		subi r30,lo8(-(rx_buff))
 358 0032 F040      		sbci r31,hi8(-(rx_buff))
 359 0034 8083      		st Z,r24
 360               	.LSM53:
 361 0036 8091 0000 		lds r24,count
 362 003a 8F5F      		subi r24,lo8(-(1))
 363 003c 8093 0000 		sts count,r24
 364               	.L39:
 365 0040 1091 0000 		lds r17,count
 366 0044 1034      		cpi r17,lo8(64)
 367 0046 00F0      		brlo .L40
 368               	.LSM54:
 369 0048 80E4      		ldi r24,lo8(64)
 370 004a E0E0      		ldi r30,lo8(tx_buff)
 371 004c F0E0      		ldi r31,hi8(tx_buff)
 372 004e DF01      		movw r26,r30
 373 0050 1D92      		st X+,__zero_reg__
 374 0052 8A95      	        dec r24
 375 0054 01F4      		brne .-6
 376               	.LSM55:
 377 0056 A091 0000 		lds r26,LMS_Ctrl_Packet_Rx
 378 005a B091 0000 		lds r27,(LMS_Ctrl_Packet_Rx)+1
 379 005e E091 0000 		lds r30,LMS_Ctrl_Packet_Tx
 380 0062 F091 0000 		lds r31,(LMS_Ctrl_Packet_Tx)+1
 381 0066 8C91      		ld r24,X
 382 0068 8083      		st Z,r24
 383               	.LSM56:
 384 006a E091 0000 		lds r30,LMS_Ctrl_Packet_Tx
 385 006e F091 0000 		lds r31,(LMS_Ctrl_Packet_Tx)+1
 386 0072 1296      		adiw r26,2
 387 0074 8C91      		ld r24,X
 388 0076 1297      		sbiw r26,2
 389 0078 8283      		std Z+2,r24
 390               	.LSM57:
 391 007a E091 0000 		lds r30,LMS_Ctrl_Packet_Tx
 392 007e F091 0000 		lds r31,(LMS_Ctrl_Packet_Tx)+1
 393 0082 83E0      		ldi r24,lo8(3)
 394 0084 8183      		std Z+1,r24
 395               	.LSM58:
 396 0086 8C91      		ld r24,X
 397 0088 8332      		cpi r24,lo8(35)
 398 008a 01F4      		brne .+2
 399 008c 00C0      		rjmp .L46
 400 008e 8432      		cpi r24,lo8(36)
 401 0090 00F4      		brsh .L52
 402 0092 8331      		cpi r24,lo8(19)
 403 0094 01F4      		brne .+2
 404 0096 00C0      		rjmp .L43
 405 0098 8431      		cpi r24,lo8(20)
 406 009a 00F4      		brsh .L53
 407 009c 8823      		tst r24
 408 009e 01F0      		breq .L42
 409 00a0 00C0      		rjmp .L41
 410               	.L53:
 411 00a2 8431      		cpi r24,lo8(20)
 412 00a4 01F4      		brne .+2
 413 00a6 00C0      		rjmp .L44
 414 00a8 8032      		cpi r24,lo8(32)
 415 00aa 01F0      		breq .+2
 416 00ac 00C0      		rjmp .L41
 417 00ae 00C0      		rjmp .L129
 418               	.L52:
 419 00b0 8134      		cpi r24,lo8(65)
 420 00b2 01F4      		brne .+2
 421 00b4 00C0      		rjmp .L49
 422 00b6 8234      		cpi r24,lo8(66)
 423 00b8 00F4      		brsh .L54
 424 00ba 8432      		cpi r24,lo8(36)
 425 00bc 01F4      		brne .+2
 426 00be 00C0      		rjmp .L47
 427 00c0 8133      		cpi r24,lo8(49)
 428 00c2 01F0      		breq .+2
 429 00c4 00C0      		rjmp .L41
 430 00c6 00C0      		rjmp .L130
 431               	.L54:
 432 00c8 8234      		cpi r24,lo8(66)
 433 00ca 01F4      		brne .+2
 434 00cc 00C0      		rjmp .L50
 435 00ce 8135      		cpi r24,lo8(81)
 436 00d0 01F0      		breq .+2
 437 00d2 00C0      		rjmp .L41
 438 00d4 00C0      		rjmp .L131
 439               	.L42:
 440               	.LSM59:
 441 00d6 0E94 0000 		call Exp_board_detection
 442               	.LSM60:
 443 00da E091 0000 		lds r30,LMS_Ctrl_Packet_Tx
 444 00de F091 0000 		lds r31,(LMS_Ctrl_Packet_Tx)+1
 445 00e2 91E0      		ldi r25,lo8(1)
 446 00e4 9087      		std Z+8,r25
 447               	.LSM61:
 448 00e6 E091 0000 		lds r30,LMS_Ctrl_Packet_Tx
 449 00ea F091 0000 		lds r31,(LMS_Ctrl_Packet_Tx)+1
 450 00ee 85E0      		ldi r24,lo8(5)
 451 00f0 8187      		std Z+9,r24
 452               	.LSM62:
 453 00f2 E091 0000 		lds r30,LMS_Ctrl_Packet_Tx
 454 00f6 F091 0000 		lds r31,(LMS_Ctrl_Packet_Tx)+1
 455 00fa 9287      		std Z+10,r25
 456               	.LSM63:
 457 00fc E091 0000 		lds r30,LMS_Ctrl_Packet_Tx
 458 0100 F091 0000 		lds r31,(LMS_Ctrl_Packet_Tx)+1
 459 0104 82E0      		ldi r24,lo8(2)
 460 0106 8387      		std Z+11,r24
 461               	.LSM64:
 462 0108 E091 0000 		lds r30,LMS_Ctrl_Packet_Tx
 463 010c F091 0000 		lds r31,(LMS_Ctrl_Packet_Tx)+1
 464 0110 8091 0000 		lds r24,Exp_board_id
 465 0114 8487      		std Z+12,r24
 466               	.LSM65:
 467 0116 E091 0000 		lds r30,LMS_Ctrl_Packet_Tx
 468 011a F091 0000 		lds r31,(LMS_Ctrl_Packet_Tx)+1
 469 011e 9183      		std Z+1,r25
 470 0120 00C0      		rjmp .L55
 471               	.L43:
 472               	.LSM66:
 473 0122 82E0      		ldi r24,lo8(2)
 474 0124 0E94 0000 		call Check_many_blocks
 475 0128 8823      		tst r24
 476 012a 01F0      		breq .+2
 477 012c 00C0      		rjmp .L55
 478 012e 10E0      		ldi r17,lo8(0)
 479               	.LVL20:
 480 0130 C0E0      		ldi r28,lo8(0)
 481 0132 D0E0      		ldi r29,hi8(0)
 482               	.LVL21:
 483 0134 00C0      		rjmp .L56
 484               	.L58:
 485               	.LSM67:
 486 0136 812F      		mov r24,r17
 487 0138 90E0      		ldi r25,lo8(0)
 488 013a 880F      		lsl r24
 489 013c 991F      		rol r25
 490 013e FD01      		movw r30,r26
 491 0140 E80F      		add r30,r24
 492 0142 F91F      		adc r31,r25
 493 0144 0996      		adiw r24,9
 494 0146 A80F      		add r26,r24
 495 0148 B91F      		adc r27,r25
 496 014a 80EC      		ldi r24,lo8(-64)
 497 014c 6085      		ldd r22,Z+8
 498 014e 41E0      		ldi r20,lo8(1)
 499 0150 9D01      		movw r18,r26
 500 0152 0E94 0000 		call i2cSend
 501 0156 8823      		tst r24
 502 0158 01F4      		brne .L57
 503 015a 2196      		adiw r28,1
 504               	.L57:
 505               	.LSM68:
 506 015c 1F5F      		subi r17,lo8(-(1))
 507               	.L56:
 508 015e A091 0000 		lds r26,LMS_Ctrl_Packet_Rx
 509 0162 B091 0000 		lds r27,(LMS_Ctrl_Packet_Rx)+1
 510 0166 1296      		adiw r26,2
 511 0168 8C91      		ld r24,X
 512 016a 1297      		sbiw r26,2
 513 016c 1817      		cp r17,r24
 514 016e 00F0      		brlo .L58
 515 0170 00C0      		rjmp .L125
 516               	.LVL22:
 517               	.L44:
 518               	.LSM69:
 519 0172 82E0      		ldi r24,lo8(2)
 520 0174 0E94 0000 		call Check_many_blocks
 521 0178 8823      		tst r24
 522 017a 01F0      		breq .+2
 523 017c 00C0      		rjmp .L55
 524 017e 10E0      		ldi r17,lo8(0)
 525               	.LVL23:
 526 0180 C0E0      		ldi r28,lo8(0)
 527 0182 D0E0      		ldi r29,hi8(0)
 528               	.LVL24:
 529 0184 00C0      		rjmp .L60
 530               	.L62:
 531               	.LSM70:
 532 0186 212F      		mov r18,r17
 533 0188 30E0      		ldi r19,lo8(0)
 534 018a C901      		movw r24,r18
 535 018c 880F      		lsl r24
 536 018e 991F      		rol r25
 537 0190 E091 0000 		lds r30,LMS_Ctrl_Packet_Tx
 538 0194 F091 0000 		lds r31,(LMS_Ctrl_Packet_Tx)+1
 539 0198 E80F      		add r30,r24
 540 019a F91F      		adc r31,r25
 541 019c A20F      		add r26,r18
 542 019e B31F      		adc r27,r19
 543 01a0 1896      		adiw r26,8
 544 01a2 2C91      		ld r18,X
 545 01a4 1897      		sbiw r26,8
 546 01a6 2087      		std Z+8,r18
 547               	.LSM71:
 548 01a8 0996      		adiw r24,9
 549 01aa 2091 0000 		lds r18,LMS_Ctrl_Packet_Tx
 550 01ae 3091 0000 		lds r19,(LMS_Ctrl_Packet_Tx)+1
 551 01b2 280F      		add r18,r24
 552 01b4 391F      		adc r19,r25
 553 01b6 80EC      		ldi r24,lo8(-64)
 554 01b8 1896      		adiw r26,8
 555 01ba 6C91      		ld r22,X
 556 01bc 41E0      		ldi r20,lo8(1)
 557 01be 0E94 0000 		call i2cReceive
 558 01c2 8823      		tst r24
 559 01c4 01F4      		brne .L61
 560 01c6 2196      		adiw r28,1
 561               	.L61:
 562               	.LSM72:
 563 01c8 1F5F      		subi r17,lo8(-(1))
 564               	.L60:
 565 01ca A091 0000 		lds r26,LMS_Ctrl_Packet_Rx
 566 01ce B091 0000 		lds r27,(LMS_Ctrl_Packet_Rx)+1
 567 01d2 1296      		adiw r26,2
 568 01d4 8C91      		ld r24,X
 569 01d6 1297      		sbiw r26,2
 570 01d8 1817      		cp r17,r24
 571 01da 00F0      		brlo .L62
 572 01dc 00C0      		rjmp .L125
 573               	.LVL25:
 574               	.L129:
 575               	.LSM73:
 576 01de 1896      		adiw r26,8
 577 01e0 8C91      		ld r24,X
 578 01e2 8130      		cpi r24,lo8(1)
 579 01e4 01F0      		breq .L66
 580 01e6 8130      		cpi r24,lo8(1)
 581 01e8 00F0      		brlo .L118
 582 01ea 8230      		cpi r24,lo8(2)
 583 01ec 01F0      		breq .+2
 584 01ee 00C0      		rjmp .L127
 585 01f0 00C0      		rjmp .L132
 586               	.L66:
 587               	.LSM74:
 588 01f2 2C98      		cbi 37-32,4
 589 01f4 00C0      		rjmp .L127
 590               	.L132:
 591               	.LSM75:
 592 01f6 2C98      		cbi 37-32,4
 593 01f8 80E1      		ldi r24,lo8(10000)
 594 01fa 97E2      		ldi r25,hi8(10000)
 595               	.LVL26:
 596 01fc 00C0      		rjmp .L68
 597               	.L69:
 598               	.LBB51:
 599               	.LBB52:
 600               	.LSM76:
 601               	/* #APP */
 602               	 ;  643 "zipper.c" 1
 603 01fe 0000      		nop
 604               	 ;  0 "" 2
 605               	.LSM77:
 606               	 ;  644 "zipper.c" 1
 607 0200 0000      		nop
 608               	 ;  0 "" 2
 609               	.LSM78:
 610               	 ;  645 "zipper.c" 1
 611 0202 0000      		nop
 612               	 ;  0 "" 2
 613               	/* #NOAPP */
 614               	.L68:
 615               	.LSM79:
 616 0204 0197      		sbiw r24,1
 617 0206 BFEF      		ldi r27,hi8(-1)
 618 0208 8F3F      		cpi r24,lo8(-1)
 619 020a 9B07      		cpc r25,r27
 620 020c 01F4      		brne .L69
 621               	.L118:
 622               	.LBE52:
 623               	.LBE51:
 624               	.LSM80:
 625 020e 2C9A      		sbi 37-32,4
 626 0210 00C0      		rjmp .L127
 627               	.LVL27:
 628               	.L46:
 629               	.LSM81:
 630 0212 82E0      		ldi r24,lo8(2)
 631 0214 0E94 0000 		call Check_many_blocks
 632 0218 8823      		tst r24
 633 021a 01F0      		breq .+2
 634 021c 00C0      		rjmp .L55
 635               	.LSM82:
 636 021e 2898      		cbi 37-32,0
 637               	.LSM83:
 638 0220 C091 0000 		lds r28,LMS_Ctrl_Packet_Rx
 639 0224 D091 0000 		lds r29,(LMS_Ctrl_Packet_Rx)+1
 640 0228 90E0      		ldi r25,lo8(0)
 641               	.LVL28:
 642 022a 00C0      		rjmp .L70
 643               	.L73:
 644               	.LSM84:
 645 022c A92F      		mov r26,r25
 646 022e B0E0      		ldi r27,lo8(0)
 647 0230 AA0F      		lsl r26
 648 0232 BB1F      		rol r27
 649 0234 FE01      		movw r30,r28
 650 0236 EA0F      		add r30,r26
 651 0238 FB1F      		adc r31,r27
 652 023a 8085      		ldd r24,Z+8
 653 023c 8068      		ori r24,lo8(-128)
 654 023e 8087      		std Z+8,r24
 655               	.LBB53:
 656               	.LBB54:
 657               	.LSM85:
 658 0240 8EBD      		out 78-32,r24
 659               	.L71:
 660               	.LSM86:
 661 0242 0DB4      		in __tmp_reg__,77-32
 662 0244 07FE      		sbrs __tmp_reg__,7
 663 0246 00C0      		rjmp .L71
 664               	.LBE54:
 665               	.LBE53:
 666               	.LSM87:
 667 0248 AC0F      		add r26,r28
 668 024a BD1F      		adc r27,r29
 669 024c 1996      		adiw r26,9
 670 024e 8C91      		ld r24,X
 671               	.LBB55:
 672               	.LBB56:
 673               	.LSM88:
 674 0250 8EBD      		out 78-32,r24
 675               	.L72:
 676               	.LSM89:
 677 0252 0DB4      		in __tmp_reg__,77-32
 678 0254 07FE      		sbrs __tmp_reg__,7
 679 0256 00C0      		rjmp .L72
 680               	.LBE56:
 681               	.LBE55:
 682               	.LSM90:
 683 0258 9F5F      		subi r25,lo8(-(1))
 684               	.L70:
 685 025a 8A81      		ldd r24,Y+2
 686 025c 9817      		cp r25,r24
 687 025e 00F0      		brlo .L73
 688 0260 00C0      		rjmp .L128
 689               	.LVL29:
 690               	.L47:
 691               	.LSM91:
 692 0262 82E0      		ldi r24,lo8(2)
 693 0264 0E94 0000 		call Check_many_blocks
 694 0268 8823      		tst r24
 695 026a 01F0      		breq .+2
 696 026c 00C0      		rjmp .L55
 697               	.LSM92:
 698 026e 2898      		cbi 37-32,0
 699               	.LSM93:
 700 0270 A091 0000 		lds r26,LMS_Ctrl_Packet_Rx
 701 0274 B091 0000 		lds r27,(LMS_Ctrl_Packet_Rx)+1
 702 0278 90E0      		ldi r25,lo8(0)
 703               	.LVL30:
 704 027a 00C0      		rjmp .L74
 705               	.L77:
 706               	.LSM94:
 707 027c 292F      		mov r18,r25
 708 027e 30E0      		ldi r19,lo8(0)
 709 0280 FD01      		movw r30,r26
 710 0282 E20F      		add r30,r18
 711 0284 F31F      		adc r31,r19
 712 0286 8085      		ldd r24,Z+8
 713 0288 8F77      		andi r24,lo8(127)
 714 028a 8087      		std Z+8,r24
 715               	.LBB57:
 716               	.LBB58:
 717               	.LSM95:
 718 028c 8EBD      		out 78-32,r24
 719               	.L75:
 720               	.LSM96:
 721 028e 0DB4      		in __tmp_reg__,77-32
 722 0290 07FE      		sbrs __tmp_reg__,7
 723 0292 00C0      		rjmp .L75
 724               	.LBE58:
 725               	.LBE57:
 726               	.LSM97:
 727 0294 220F      		lsl r18
 728 0296 331F      		rol r19
 729 0298 E091 0000 		lds r30,LMS_Ctrl_Packet_Tx
 730 029c F091 0000 		lds r31,(LMS_Ctrl_Packet_Tx)+1
 731 02a0 E20F      		add r30,r18
 732 02a2 F31F      		adc r31,r19
 733 02a4 8087      		std Z+8,r24
 734               	.LSM98:
 735 02a6 E091 0000 		lds r30,LMS_Ctrl_Packet_Tx
 736 02aa F091 0000 		lds r31,(LMS_Ctrl_Packet_Tx)+1
 737               	.LBB59:
 738               	.LBB60:
 739               	.LSM99:
 740 02ae 1EBC      		out 78-32,__zero_reg__
 741               	.L76:
 742               	.LSM100:
 743 02b0 0DB4      		in __tmp_reg__,77-32
 744 02b2 07FE      		sbrs __tmp_reg__,7
 745 02b4 00C0      		rjmp .L76
 746               	.LSM101:
 747 02b6 8EB5      		in r24,78-32
 748               	.LBE60:
 749               	.LBE59:
 750               	.LSM102:
 751 02b8 E20F      		add r30,r18
 752 02ba F31F      		adc r31,r19
 753 02bc 8187      		std Z+9,r24
 754               	.LSM103:
 755 02be 9F5F      		subi r25,lo8(-(1))
 756               	.L74:
 757 02c0 1296      		adiw r26,2
 758 02c2 8C91      		ld r24,X
 759 02c4 1297      		sbiw r26,2
 760 02c6 9817      		cp r25,r24
 761 02c8 00F0      		brlo .L77
 762               	.L128:
 763               	.LSM104:
 764 02ca 289A      		sbi 37-32,0
 765 02cc 00C0      		rjmp .L127
 766               	.LVL31:
 767               	.L130:
 768               	.LSM105:
 769 02ce 83E0      		ldi r24,lo8(3)
 770 02d0 0E94 0000 		call Check_many_blocks
 771 02d4 8823      		tst r24
 772 02d6 01F0      		breq .+2
 773 02d8 00C0      		rjmp .L55
 774               	.LSM106:
 775 02da E091 0000 		lds r30,LMS_Ctrl_Packet_Rx
 776 02de F091 0000 		lds r31,(LMS_Ctrl_Packet_Rx)+1
 777 02e2 2281      		ldd r18,Z+2
 778 02e4 90E0      		ldi r25,lo8(0)
 779               	.LVL32:
 780 02e6 00C0      		rjmp .L78
 781               	.L82:
 782               	.LSM107:
 783 02e8 2D98      		cbi 37-32,5
 784               	.LSM108:
 785 02ea 8085      		ldd r24,Z+8
 786               	.LBB61:
 787               	.LBB62:
 788               	.LSM109:
 789 02ec 8EBD      		out 78-32,r24
 790               	.L79:
 791               	.LSM110:
 792 02ee 0DB4      		in __tmp_reg__,77-32
 793 02f0 07FE      		sbrs __tmp_reg__,7
 794 02f2 00C0      		rjmp .L79
 795               	.LBE62:
 796               	.LBE61:
 797               	.LSM111:
 798 02f4 8185      		ldd r24,Z+9
 799               	.LBB63:
 800               	.LBB64:
 801               	.LSM112:
 802 02f6 8EBD      		out 78-32,r24
 803               	.L80:
 804               	.LSM113:
 805 02f8 0DB4      		in __tmp_reg__,77-32
 806 02fa 07FE      		sbrs __tmp_reg__,7
 807 02fc 00C0      		rjmp .L80
 808               	.LBE64:
 809               	.LBE63:
 810               	.LSM114:
 811 02fe 8285      		ldd r24,Z+10
 812               	.LBB65:
 813               	.LBB66:
 814               	.LSM115:
 815 0300 8EBD      		out 78-32,r24
 816               	.L81:
 817               	.LSM116:
 818 0302 0DB4      		in __tmp_reg__,77-32
 819 0304 07FE      		sbrs __tmp_reg__,7
 820 0306 00C0      		rjmp .L81
 821               	.LBE66:
 822               	.LBE65:
 823               	.LSM117:
 824 0308 2D9A      		sbi 37-32,5
 825               	.LSM118:
 826 030a 9F5F      		subi r25,lo8(-(1))
 827 030c 3396      		adiw r30,3
 828               	.L78:
 829 030e 9217      		cp r25,r18
 830 0310 00F0      		brlo .L82
 831               	.LVL33:
 832               	.L127:
 833               	.LSM119:
 834 0312 E091 0000 		lds r30,LMS_Ctrl_Packet_Tx
 835 0316 F091 0000 		lds r31,(LMS_Ctrl_Packet_Tx)+1
 836 031a 00C0      		rjmp .L96
 837               	.LVL34:
 838               	.L49:
 839               	.LSM120:
 840 031c 83E0      		ldi r24,lo8(3)
 841 031e 0E94 0000 		call Check_many_blocks
 842 0322 8823      		tst r24
 843 0324 01F0      		breq .+2
 844 0326 00C0      		rjmp .L55
 845 0328 10E0      		ldi r17,lo8(0)
 846               	.LVL35:
 847 032a C0E0      		ldi r28,lo8(0)
 848 032c D0E0      		ldi r29,hi8(0)
 849               	.LVL36:
 850 032e 00C0      		rjmp .L83
 851               	.L88:
 852               	.LSM121:
 853 0330 812F      		mov r24,r17
 854 0332 90E0      		ldi r25,lo8(0)
 855 0334 63E0      		ldi r22,lo8(3)
 856 0336 70E0      		ldi r23,hi8(3)
 857 0338 0E94 0000 		call __mulhi3
 858 033c E80F      		add r30,r24
 859 033e F91F      		adc r31,r25
 860 0340 8085      		ldd r24,Z+8
 861 0342 8823      		tst r24
 862 0344 01F0      		breq .L85
 863 0346 8130      		cpi r24,lo8(1)
 864 0348 01F4      		brne .L116
 865 034a 00C0      		rjmp .L133
 866               	.L85:
 867               	.LSM122:
 868 034c 86E2      		ldi r24,lo8(38)
 869 034e 00C0      		rjmp .L119
 870               	.L133:
 871               	.LSM123:
 872 0350 87E2      		ldi r24,lo8(39)
 873               	.L119:
 874 0352 6185      		ldd r22,Z+9
 875 0354 4285      		ldd r20,Z+10
 876 0356 0E94 0000 		call MIPI_RFFE_Write
 877 035a 00C0      		rjmp .L87
 878               	.L116:
 879               	.LSM124:
 880 035c 2196      		adiw r28,1
 881               	.L87:
 882               	.LSM125:
 883 035e 1F5F      		subi r17,lo8(-(1))
 884               	.L83:
 885 0360 E091 0000 		lds r30,LMS_Ctrl_Packet_Rx
 886 0364 F091 0000 		lds r31,(LMS_Ctrl_Packet_Rx)+1
 887 0368 8281      		ldd r24,Z+2
 888 036a 1817      		cp r17,r24
 889 036c 00F0      		brlo .L88
 890               	.L125:
 891 036e E091 0000 		lds r30,LMS_Ctrl_Packet_Tx
 892 0372 F091 0000 		lds r31,(LMS_Ctrl_Packet_Tx)+1
 893               	.LSM126:
 894 0376 CD2B      		or r28,r29
 895 0378 01F4      		brne .+2
 896 037a 00C0      		rjmp .L96
 897 037c 00C0      		rjmp .L123
 898               	.LVL37:
 899               	.L50:
 900               	.LSM127:
 901 037e 83E0      		ldi r24,lo8(3)
 902 0380 0E94 0000 		call Check_many_blocks
 903 0384 8823      		tst r24
 904 0386 01F0      		breq .+2
 905 0388 00C0      		rjmp .L55
 906 038a BB24      		clr r11
 907               	.LVL38:
 908 038c CC24      		clr r12
 909 038e DD24      		clr r13
 910               	.LVL39:
 911 0390 00C0      		rjmp .L90
 912               	.L95:
 913               	.LSM128:
 914 0392 2B2D      		mov r18,r11
 915 0394 30E0      		ldi r19,lo8(0)
 916 0396 C901      		movw r24,r18
 917 0398 63E0      		ldi r22,lo8(3)
 918 039a 70E0      		ldi r23,hi8(3)
 919 039c 0E94 0000 		call __mulhi3
 920 03a0 7C01      		movw r14,r24
 921 03a2 220F      		lsl r18
 922 03a4 331F      		rol r19
 923 03a6 E091 0000 		lds r30,LMS_Ctrl_Packet_Tx
 924 03aa F091 0000 		lds r31,(LMS_Ctrl_Packet_Tx)+1
 925 03ae EE0D      		add r30,r14
 926 03b0 FF1D      		adc r31,r15
 927 03b2 D801      		movw r26,r16
 928 03b4 A20F      		add r26,r18
 929 03b6 B31F      		adc r27,r19
 930 03b8 1896      		adiw r26,8
 931 03ba 8C91      		ld r24,X
 932 03bc 1897      		sbiw r26,8
 933 03be 8087      		std Z+8,r24
 934               	.LSM129:
 935 03c0 E901      		movw r28,r18
 936 03c2 2196      		adiw r28,1
 937 03c4 E091 0000 		lds r30,LMS_Ctrl_Packet_Tx
 938 03c8 F091 0000 		lds r31,(LMS_Ctrl_Packet_Tx)+1
 939 03cc EE0D      		add r30,r14
 940 03ce FF1D      		adc r31,r15
 941 03d0 C00F      		add r28,r16
 942 03d2 D11F      		adc r29,r17
 943 03d4 8885      		ldd r24,Y+8
 944 03d6 8187      		std Z+9,r24
 945               	.LSM130:
 946 03d8 1896      		adiw r26,8
 947 03da 8C91      		ld r24,X
 948 03dc 8823      		tst r24
 949 03de 01F0      		breq .L92
 950 03e0 8130      		cpi r24,lo8(1)
 951 03e2 01F4      		brne .L117
 952 03e4 00C0      		rjmp .L134
 953               	.L92:
 954               	.LSM131:
 955 03e6 0091 0000 		lds r16,LMS_Ctrl_Packet_Tx
 956 03ea 1091 0000 		lds r17,(LMS_Ctrl_Packet_Tx)+1
 957 03ee 86E2      		ldi r24,lo8(38)
 958 03f0 6885      		ldd r22,Y+8
 959 03f2 0E94 0000 		call MIPI_RFFE_Read
 960 03f6 0E0D      		add r16,r14
 961 03f8 1F1D      		adc r17,r15
 962 03fa F801      		movw r30,r16
 963 03fc 8287      		std Z+10,r24
 964 03fe 00C0      		rjmp .L94
 965               	.L134:
 966               	.LSM132:
 967 0400 0091 0000 		lds r16,LMS_Ctrl_Packet_Tx
 968 0404 1091 0000 		lds r17,(LMS_Ctrl_Packet_Tx)+1
 969 0408 87E2      		ldi r24,lo8(39)
 970 040a 6885      		ldd r22,Y+8
 971 040c 0E94 0000 		call MIPI_RFFE_Read
 972 0410 0E0D      		add r16,r14
 973 0412 1F1D      		adc r17,r15
 974 0414 D801      		movw r26,r16
 975 0416 1A96      		adiw r26,10
 976 0418 8C93      		st X,r24
 977 041a 00C0      		rjmp .L94
 978               	.L117:
 979               	.LSM133:
 980 041c 0894      		sec
 981 041e C11C      		adc r12,__zero_reg__
 982 0420 D11C      		adc r13,__zero_reg__
 983               	.L94:
 984               	.LSM134:
 985 0422 B394      		inc r11
 986               	.L90:
 987 0424 0091 0000 		lds r16,LMS_Ctrl_Packet_Rx
 988 0428 1091 0000 		lds r17,(LMS_Ctrl_Packet_Rx)+1
 989 042c F801      		movw r30,r16
 990 042e 8281      		ldd r24,Z+2
 991 0430 B816      		cp r11,r24
 992 0432 00F4      		brsh .+2
 993 0434 00C0      		rjmp .L95
 994 0436 E091 0000 		lds r30,LMS_Ctrl_Packet_Tx
 995 043a F091 0000 		lds r31,(LMS_Ctrl_Packet_Tx)+1
 996               	.LSM135:
 997 043e CD28      		or r12,r13
 998 0440 01F0      		breq .L96
 999               	.LVL40:
 1000               	.L123:
 1001 0442 85E0      		ldi r24,lo8(5)
 1002 0444 00C0      		rjmp .L121
 1003               	.LVL41:
 1004               	.L96:
 1005               	.LSM136:
 1006 0446 81E0      		ldi r24,lo8(1)
 1007               	.LVL42:
 1008 0448 00C0      		rjmp .L121
 1009               	.LVL43:
 1010               	.L131:
 1011               	.LSM137:
 1012 044a 0E94 0000 		call Exp_board_detection
 1013               	.LSM138:
 1014 044e E091 0000 		lds r30,LMS_Ctrl_Packet_Rx
 1015 0452 F091 0000 		lds r31,(LMS_Ctrl_Packet_Rx)+1
 1016 0456 8085      		ldd r24,Z+8
 1017 0458 482F      		mov r20,r24
 1018 045a 50E0      		ldi r21,lo8(0)
 1019 045c 80FF      		sbrs r24,0
 1020 045e 00C0      		rjmp .L97
 1021 0460 469A      		sbi 40-32,6
 1022 0462 00C0      		rjmp .L98
 1023               	.L97:
 1024               	.LSM139:
 1025 0464 4698      		cbi 40-32,6
 1026               	.L98:
 1027               	.LSM140:
 1028 0466 41FF      		sbrs r20,1
 1029 0468 00C0      		rjmp .L99
 1030 046a 479A      		sbi 40-32,7
 1031 046c 00C0      		rjmp .L100
 1032               	.L99:
 1033               	.LSM141:
 1034 046e 4798      		cbi 40-32,7
 1035               	.L100:
 1036               	.LSM142:
 1037 0470 8091 0000 		lds r24,Exp_board_id
 1038 0474 9A01      		movw r18,r20
 1039 0476 2470      		andi r18,lo8(4)
 1040 0478 3070      		andi r19,hi8(4)
 1041 047a 8430      		cpi r24,lo8(4)
 1042 047c 01F4      		brne .L101
 1043               	.LSM143:
 1044 047e 232B      		or r18,r19
 1045 0480 01F0      		breq .L120
 1046 0482 00C0      		rjmp .L104
 1047               	.L101:
 1048               	.LSM144:
 1049 0484 232B      		or r18,r19
 1050 0486 01F0      		breq .L104
 1051               	.L120:
 1052 0488 5C9A      		sbi 43-32,4
 1053 048a 00C0      		rjmp .L103
 1054               	.L104:
 1055               	.LSM145:
 1056 048c 5C98      		cbi 43-32,4
 1057               	.L103:
 1058               	.LSM146:
 1059 048e 43FF      		sbrs r20,3
 1060 0490 00C0      		rjmp .L105
 1061 0492 5E9A      		sbi 43-32,6
 1062 0494 00C0      		rjmp .L55
 1063               	.L105:
 1064               	.LSM147:
 1065 0496 5E98      		cbi 43-32,6
 1066 0498 00C0      		rjmp .L55
 1067               	.L41:
 1068               	.LSM148:
 1069 049a E091 0000 		lds r30,LMS_Ctrl_Packet_Tx
 1070 049e F091 0000 		lds r31,(LMS_Ctrl_Packet_Tx)+1
 1071 04a2 82E0      		ldi r24,lo8(2)
 1072               	.LVL44:
 1073               	.L121:
 1074 04a4 8183      		std Z+1,r24
 1075               	.L55:
 1076               	.LSM149:
 1077 04a6 1092 0000 		sts count,__zero_reg__
 1078 04aa 00C0      		rjmp .L106
 1079               	.L107:
 1080               	.LSM150:
 1081 04ac F0E0      		ldi r31,lo8(0)
 1082 04ae E050      		subi r30,lo8(-(tx_buff))
 1083 04b0 F040      		sbci r31,hi8(-(tx_buff))
 1084 04b2 80E0      		ldi r24,lo8(Tx_Buffer)
 1085 04b4 90E0      		ldi r25,hi8(Tx_Buffer)
 1086 04b6 6081      		ld r22,Z
 1087 04b8 0E94 0000 		call Buffer_StoreElement
 1088               	.LSM151:
 1089 04bc 8091 0000 		lds r24,count
 1090 04c0 8F5F      		subi r24,lo8(-(1))
 1091 04c2 8093 0000 		sts count,r24
 1092               	.LVL45:
 1093               	.L106:
 1094 04c6 E091 0000 		lds r30,count
 1095 04ca E034      		cpi r30,lo8(64)
 1096 04cc 00F0      		brlo .L107
 1097               	.LSM152:
 1098 04ce 2F98      		cbi 37-32,7
 1099               	.L108:
 1100               	/* epilogue start */
 1101               	.LSM153:
 1102 04d0 DF91      		pop r29
 1103 04d2 CF91      		pop r28
 1104 04d4 1F91      		pop r17
 1105 04d6 0F91      		pop r16
 1106 04d8 FF90      		pop r15
 1107 04da EF90      		pop r14
 1108 04dc DF90      		pop r13
 1109 04de CF90      		pop r12
 1110               	.LVL46:
 1111 04e0 BF90      		pop r11
 1112               	.LVL47:
 1113 04e2 0895      		ret
 1114               	.LFE40:
 1116               		.section	.text.CDC_Task,"ax",@progbits
 1117               	.global	CDC_Task
 1119               	CDC_Task:
 1120               	.LFB39:
 1121               	.LSM154:
 1122               	/* prologue: function */
 1123               	/* frame size = 0 */
 1124               	.LSM155:
 1125 0000 8091 0000 		lds r24,USB_IsConnected
 1126 0004 8823      		tst r24
 1127 0006 01F4      		brne .+2
 1128 0008 00C0      		rjmp .L146
 1129               	.LSM156:
 1130 000a 84E0      		ldi r24,lo8(4)
 1131 000c 8093 E900 		sts 233,r24
 1132               	.LSM157:
 1133 0010 8091 E800 		lds r24,232
 1134 0014 82FD      		sbrc r24,2
 1135 0016 00C0      		rjmp .L151
 1136 0018 00C0      		rjmp .L138
 1137               	.L140:
 1138               	.LBB67:
 1139               	.LBB68:
 1140               	.LSM158:
 1141 001a 6091 F100 		lds r22,241
 1142               	.LBE68:
 1143               	.LBE67:
 1144               	.LSM159:
 1145 001e 80E0      		ldi r24,lo8(Rx_Buffer)
 1146 0020 90E0      		ldi r25,hi8(Rx_Buffer)
 1147 0022 0E94 0000 		call Buffer_StoreElement
 1148               	.L151:
 1149               	.LSM160:
 1150 0026 8091 F200 		lds r24,242
 1151 002a 8823      		tst r24
 1152 002c 01F0      		breq .L139
 1153 002e 8091 0000 		lds r24,Rx_Buffer+132
 1154 0032 8038      		cpi r24,lo8(-128)
 1155 0034 01F4      		brne .L140
 1156               	.L139:
 1157               	.LSM161:
 1158 0036 8091 F200 		lds r24,242
 1159 003a 8823      		tst r24
 1160 003c 01F4      		brne .L138
 1161               	.LBB69:
 1162               	.LSM162:
 1163 003e 8091 E800 		lds r24,232
 1164               	.LVL48:
 1165 0042 982F      		mov r25,r24
 1166 0044 9B7F      		andi r25,lo8(-5)
 1167 0046 9093 E800 		sts 232,r25
 1168 004a 8F77      		andi r24,lo8(127)
 1169 004c 8093 E800 		sts 232,r24
 1170               	.L138:
 1171               	.LBE69:
 1172               	.LSM163:
 1173 0050 83E0      		ldi r24,lo8(3)
 1174               	.LVL49:
 1175 0052 8093 E900 		sts 233,r24
 1176               	.LSM164:
 1177 0056 8091 0000 		lds r24,Tx_Buffer+132
 1178 005a 8823      		tst r24
 1179 005c 01F0      		breq .L146
 1180               	.L148:
 1181               	.LBB70:
 1182               	.LSM165:
 1183 005e 8091 E800 		lds r24,232
 1184 0062 85FF      		sbrs r24,5
 1185 0064 00C0      		rjmp .L148
 1186 0066 00C0      		rjmp .L152
 1187               	.L144:
 1188               	.LSM166:
 1189 0068 80E0      		ldi r24,lo8(Tx_Buffer)
 1190 006a 90E0      		ldi r25,hi8(Tx_Buffer)
 1191 006c 0E94 0000 		call Buffer_GetElement
 1192               	.LBB71:
 1193               	.LBB72:
 1194               	.LSM167:
 1195 0070 8093 F100 		sts 241,r24
 1196               	.L152:
 1197               	.LBE72:
 1198               	.LBE71:
 1199               	.LSM168:
 1200 0074 8091 0000 		lds r24,Tx_Buffer+132
 1201 0078 8823      		tst r24
 1202 007a 01F0      		breq .L143
 1203 007c 8091 F200 		lds r24,242
 1204 0080 8034      		cpi r24,lo8(64)
 1205 0082 00F0      		brlo .L144
 1206               	.L143:
 1207               	.LSM169:
 1208 0084 8091 F200 		lds r24,242
 1209               	.LBB73:
 1210               	.LSM170:
 1211 0088 9091 E800 		lds r25,232
 1212               	.LVL50:
 1213 008c 292F      		mov r18,r25
 1214 008e 2E7F      		andi r18,lo8(-2)
 1215 0090 2093 E800 		sts 232,r18
 1216 0094 9F77      		andi r25,lo8(127)
 1217 0096 9093 E800 		sts 232,r25
 1218               	.LBE73:
 1219               	.LSM171:
 1220 009a 8034      		cpi r24,lo8(64)
 1221 009c 01F4      		brne .L146
 1222 009e 8091 0000 		lds r24,Tx_Buffer+132
 1223 00a2 8823      		tst r24
 1224 00a4 01F4      		brne .L146
 1225               	.L147:
 1226               	.LSM172:
 1227 00a6 8091 E800 		lds r24,232
 1228 00aa 85FF      		sbrs r24,5
 1229 00ac 00C0      		rjmp .L147
 1230               	.LBB74:
 1231               	.LSM173:
 1232 00ae 8091 E800 		lds r24,232
 1233               	.LVL51:
 1234 00b2 982F      		mov r25,r24
 1235               	.LVL52:
 1236 00b4 9E7F      		andi r25,lo8(-2)
 1237 00b6 9093 E800 		sts 232,r25
 1238 00ba 8F77      		andi r24,lo8(127)
 1239 00bc 8093 E800 		sts 232,r24
 1240               	.LVL53:
 1241               	.L146:
 1242 00c0 0895      		ret
 1243               	.LBE74:
 1244               	.LBE70:
 1245               	.LFE39:
 1247               		.section	.text.EVENT_USB_UnhandledControlPacket,"ax",@progbits
 1248               	.global	EVENT_USB_UnhandledControlPacket
 1250               	EVENT_USB_UnhandledControlPacket:
 1251               	.LFB38:
 1252               	.LSM174:
 1253               	/* prologue: function */
 1254               	/* frame size = 0 */
 1255               	.LSM175:
 1256 0000 8091 0000 		lds r24,USB_ControlRequest+1
 1257 0004 8132      		cpi r24,lo8(33)
 1258 0006 01F0      		breq .L156
 1259 0008 8232      		cpi r24,lo8(34)
 1260 000a 01F0      		breq .L157
 1261 000c 8032      		cpi r24,lo8(32)
 1262 000e 01F0      		breq .+2
 1263 0010 00C0      		rjmp .L159
 1264 0012 00C0      		rjmp .L161
 1265               	.L156:
 1266               	.LSM176:
 1267 0014 8091 0000 		lds r24,USB_ControlRequest
 1268 0018 813A      		cpi r24,lo8(-95)
 1269 001a 01F0      		breq .+2
 1270 001c 00C0      		rjmp .L159
 1271               	.LSM177:
 1272 001e 8091 E800 		lds r24,232
 1273 0022 877F      		andi r24,lo8(-9)
 1274 0024 8093 E800 		sts 232,r24
 1275               	.LSM178:
 1276 0028 80E0      		ldi r24,lo8(LineCoding)
 1277 002a 90E0      		ldi r25,hi8(LineCoding)
 1278 002c 67E0      		ldi r22,lo8(7)
 1279 002e 70E0      		ldi r23,hi8(7)
 1280 0030 0E94 0000 		call Endpoint_Write_Control_Stream_LE
 1281               	.LBB75:
 1282               	.LSM179:
 1283 0034 8091 E800 		lds r24,232
 1284               	.LVL54:
 1285 0038 982F      		mov r25,r24
 1286 003a 9B7F      		andi r25,lo8(-5)
 1287 003c 9093 E800 		sts 232,r25
 1288 0040 8F77      		andi r24,lo8(127)
 1289 0042 8093 E800 		sts 232,r24
 1290 0046 0895      		ret
 1291               	.LVL55:
 1292               	.L161:
 1293               	.LBE75:
 1294               	.LSM180:
 1295 0048 8091 0000 		lds r24,USB_ControlRequest
 1296 004c 8132      		cpi r24,lo8(33)
 1297 004e 01F4      		brne .L159
 1298               	.LSM181:
 1299 0050 8091 E800 		lds r24,232
 1300 0054 877F      		andi r24,lo8(-9)
 1301 0056 8093 E800 		sts 232,r24
 1302               	.LSM182:
 1303 005a 80E0      		ldi r24,lo8(LineCoding)
 1304 005c 90E0      		ldi r25,hi8(LineCoding)
 1305 005e 67E0      		ldi r22,lo8(7)
 1306 0060 70E0      		ldi r23,hi8(7)
 1307 0062 0E94 0000 		call Endpoint_Read_Control_Stream_LE
 1308               	.LBB76:
 1309               	.LSM183:
 1310 0066 8091 E800 		lds r24,232
 1311               	.LVL56:
 1312 006a 982F      		mov r25,r24
 1313 006c 9E7F      		andi r25,lo8(-2)
 1314 006e 9093 E800 		sts 232,r25
 1315 0072 8F77      		andi r24,lo8(127)
 1316 0074 8093 E800 		sts 232,r24
 1317               	.LBE76:
 1318               	.LSM184:
 1319 0078 0E94 0000 		call Reconfigure_SPI_for_LMS
 1320               	.LVL57:
 1321 007c 0895      		ret
 1322               	.L157:
 1323               	.LSM185:
 1324 007e 8091 0000 		lds r24,USB_ControlRequest
 1325 0082 8132      		cpi r24,lo8(33)
 1326 0084 01F4      		brne .L159
 1327               	.LSM186:
 1328 0086 8091 E800 		lds r24,232
 1329 008a 877F      		andi r24,lo8(-9)
 1330 008c 8093 E800 		sts 232,r24
 1331               	.L158:
 1332               	.LSM187:
 1333 0090 8091 E800 		lds r24,232
 1334 0094 80FF      		sbrs r24,0
 1335 0096 00C0      		rjmp .L158
 1336               	.LBB77:
 1337               	.LSM188:
 1338 0098 8091 E800 		lds r24,232
 1339               	.LVL58:
 1340 009c 982F      		mov r25,r24
 1341 009e 9E7F      		andi r25,lo8(-2)
 1342 00a0 9093 E800 		sts 232,r25
 1343 00a4 8F77      		andi r24,lo8(127)
 1344 00a6 8093 E800 		sts 232,r24
 1345               	.L159:
 1346 00aa 0895      		ret
 1347               	.LBE77:
 1348               	.LFE38:
 1350               		.section	.text.EVENT_USB_ConfigurationChanged,"ax",@progbits
 1351               	.global	EVENT_USB_ConfigurationChanged
 1353               	EVENT_USB_ConfigurationChanged:
 1354               	.LFB37:
 1355               	.LSM189:
 1356               	/* prologue: function */
 1357               	/* frame size = 0 */
 1358               	.LSM190:
 1359 0000 82E0      		ldi r24,lo8(2)
 1360 0002 61EC      		ldi r22,lo8(-63)
 1361 0004 42E0      		ldi r20,lo8(2)
 1362 0006 0E94 0000 		call Endpoint_ConfigureEndpoint_Prv
 1363               	.LSM191:
 1364 000a 83E0      		ldi r24,lo8(3)
 1365 000c 61E8      		ldi r22,lo8(-127)
 1366 000e 42E3      		ldi r20,lo8(50)
 1367 0010 0E94 0000 		call Endpoint_ConfigureEndpoint_Prv
 1368               	.LSM192:
 1369 0014 84E0      		ldi r24,lo8(4)
 1370 0016 60E8      		ldi r22,lo8(-128)
 1371 0018 42E3      		ldi r20,lo8(50)
 1372 001a 0E94 0000 		call Endpoint_ConfigureEndpoint_Prv
 1373               	.LSM193:
 1374 001e 80E0      		ldi r24,lo8(gs(CDC_Task))
 1375 0020 90E0      		ldi r25,hi8(gs(CDC_Task))
 1376 0022 61E0      		ldi r22,lo8(1)
 1377 0024 0E94 0000 		call Scheduler_SetTaskMode
 1378               	.LSM194:
 1379 0028 80E0      		ldi r24,lo8(gs(Main_Task))
 1380 002a 90E0      		ldi r25,hi8(gs(Main_Task))
 1381 002c 61E0      		ldi r22,lo8(1)
 1382 002e 0E94 0000 		call Scheduler_SetTaskMode
 1383               	/* epilogue start */
 1384               	.LSM195:
 1385 0032 0895      		ret
 1386               	.LFE37:
 1388               		.section	.text.EVENT_USB_Connect,"ax",@progbits
 1389               	.global	EVENT_USB_Connect
 1391               	EVENT_USB_Connect:
 1392               	.LFB35:
 1393               	.LSM196:
 1394               	/* prologue: function */
 1395               	/* frame size = 0 */
 1396               	.LSM197:
 1397 0000 80E0      		ldi r24,lo8(gs(USB_USBTask))
 1398 0002 90E0      		ldi r25,hi8(gs(USB_USBTask))
 1399 0004 61E0      		ldi r22,lo8(1)
 1400 0006 0E94 0000 		call Scheduler_SetTaskMode
 1401               	/* epilogue start */
 1402               	.LSM198:
 1403 000a 0895      		ret
 1404               	.LFE35:
 1406               		.section	.text.EVENT_USB_Disconnect,"ax",@progbits
 1407               	.global	EVENT_USB_Disconnect
 1409               	EVENT_USB_Disconnect:
 1410               	.LFB36:
 1411               	.LSM199:
 1412               	/* prologue: function */
 1413               	/* frame size = 0 */
 1414               	.LSM200:
 1415 0000 80E0      		ldi r24,lo8(gs(CDC_Task))
 1416 0002 90E0      		ldi r25,hi8(gs(CDC_Task))
 1417 0004 60E0      		ldi r22,lo8(0)
 1418 0006 0E94 0000 		call Scheduler_SetTaskMode
 1419               	.LSM201:
 1420 000a 80E0      		ldi r24,lo8(gs(USB_USBTask))
 1421 000c 90E0      		ldi r25,hi8(gs(USB_USBTask))
 1422 000e 60E0      		ldi r22,lo8(0)
 1423 0010 0E94 0000 		call Scheduler_SetTaskMode
 1424               	.LSM202:
 1425 0014 80E0      		ldi r24,lo8(Rx_Buffer)
 1426 0016 90E0      		ldi r25,hi8(Rx_Buffer)
 1427 0018 0E94 0000 		call Buffer_Initialize
 1428               	.LSM203:
 1429 001c 80E0      		ldi r24,lo8(Tx_Buffer)
 1430 001e 90E0      		ldi r25,hi8(Tx_Buffer)
 1431 0020 0E94 0000 		call Buffer_Initialize
 1432               	/* epilogue start */
 1433               	.LSM204:
 1434 0024 0895      		ret
 1435               	.LFE36:
 1437               		.section	.text.main,"ax",@progbits
 1438               	.global	main
 1440               	main:
 1441               	.LFB34:
 1442               	.LSM205:
 1443 0000 1F93      		push r17
 1444 0002 CF93      		push r28
 1445 0004 DF93      		push r29
 1446               	/* prologue: function */
 1447               	/* frame size = 0 */
 1448               	.LSM206:
 1449 0006 84B7      		in r24,84-32
 1450 0008 877F      		andi r24,lo8(-9)
 1451 000a 84BF      		out 84-32,r24
 1452               	.LSM207:
 1453 000c 88E1      		ldi r24,lo8(24)
 1454               	/* #APP */
 1455               	 ;  78 "zipper.c" 1
 1456 000e 0FB6      		in __tmp_reg__, __SREG__
 1457 0010 F894      		cli
 1458 0012 8093 6000 		sts 96, r24
 1459 0016 1092 6000 		sts 96, __zero_reg__
 1460 001a 0FBE      		out __SREG__,__tmp_reg__
 1461               		
 1462               	 ;  0 "" 2
 1463               	/* #NOAPP */
 1464               	.LBB78:
 1465               	.LSM208:
 1466 001c 80E0      		ldi r24,lo8(0)
 1467 001e 90E0      		ldi r25,hi8(0)
 1468 0020 20E8      		ldi r18,lo8(-128)
 1469               	/* #APP */
 1470               	 ;  81 "zipper.c" 1
 1471 0022 0FB6      		in __tmp_reg__,__SREG__
 1472 0024 F894      		cli
 1473 0026 2093 6100 		sts 97, r18
 1474 002a 8093 6100 		sts 97, r24
 1475 002e 0FBE      		out __SREG__, __tmp_reg__
 1476               	 ;  0 "" 2
 1477               	/* #NOAPP */
 1478               	.LBE78:
 1479               	.LSM209:
 1480 0030 209A      		sbi 36-32,0
 1481               	.LSM210:
 1482 0032 219A      		sbi 36-32,1
 1483               	.LSM211:
 1484 0034 229A      		sbi 36-32,2
 1485               	.LSM212:
 1486 0036 249A      		sbi 36-32,4
 1487               	.LSM213:
 1488 0038 259A      		sbi 36-32,5
 1489               	.LSM214:
 1490 003a 269A      		sbi 36-32,6
 1491               	.LSM215:
 1492 003c 279A      		sbi 36-32,7
 1493               	.LSM216:
 1494 003e 3E9A      		sbi 39-32,6
 1495               	.LSM217:
 1496 0040 3F9A      		sbi 39-32,7
 1497               	.LSM218:
 1498 0042 549A      		sbi 42-32,4
 1499               	.LSM219:
 1500 0044 569A      		sbi 42-32,6
 1501               	.LSM220:
 1502 0046 239A      		sbi 36-32,3
 1503               	.LSM221:
 1504 0048 289A      		sbi 37-32,0
 1505               	.LSM222:
 1506 004a 2D9A      		sbi 37-32,5
 1507               	.LSM223:
 1508 004c 2E9A      		sbi 37-32,6
 1509               	.LSM224:
 1510 004e 2C9A      		sbi 37-32,4
 1511               	.LSM225:
 1512 0050 0E94 0000 		call Reconfigure_SPI_for_LMS
 1513               	.LSM226:
 1514 0054 0E94 0000 		call i2cInit
 1515               	.LSM227:
 1516 0058 0E94 0000 		call MIPI_RFFE_Init
 1517               	.LSM228:
 1518 005c 1092 8000 		sts 128,__zero_reg__
 1519               	.LSM229:
 1520 0060 84E0      		ldi r24,lo8(4)
 1521 0062 8093 8100 		sts 129,r24
 1522               	.LSM230:
 1523 0066 80E0      		ldi r24,lo8(Rx_Buffer)
 1524 0068 90E0      		ldi r25,hi8(Rx_Buffer)
 1525 006a 0E94 0000 		call Buffer_Initialize
 1526               	.LSM231:
 1527 006e 80E0      		ldi r24,lo8(Tx_Buffer)
 1528 0070 90E0      		ldi r25,hi8(Tx_Buffer)
 1529 0072 0E94 0000 		call Buffer_Initialize
 1530               	.LBB79:
 1531               	.LBB80:
 1532               	.LSM232:
 1533 0076 13E0      		ldi r17,lo8(3)
 1534 0078 1093 0000 		sts Scheduler_TotalTasks,r17
 1535               	.LBE80:
 1536               	.LBE79:
 1537               	.LSM233:
 1538 007c 0E94 0000 		call USB_Init
 1539               	.LBB81:
 1540               	.LBB82:
 1541               	.LBB83:
 1542               	.LBB84:
 1543               	.LSM234:
 1544 0080 1093 0000 		sts Scheduler_TotalTasks,r17
 1545 0084 C0E0      		ldi r28,lo8(Scheduler_TaskList)
 1546 0086 D0E0      		ldi r29,hi8(Scheduler_TaskList)
 1547               	.LVL59:
 1548 0088 00C0      		rjmp .L173
 1549               	.L171:
 1550               	.LBE84:
 1551               	.LBE83:
 1552               	.LBB85:
 1553               	.LSM235:
 1554 008a 8A81      		ldd r24,Y+2
 1555 008c 8823      		tst r24
 1556 008e 01F0      		breq .L170
 1557               	.LSM236:
 1558 0090 E881      		ld r30,Y
 1559 0092 F981      		ldd r31,Y+1
 1560 0094 0995      		icall
 1561               	.L170:
 1562               	.LSM237:
 1563 0096 2496      		adiw r28,4
 1564               	.L173:
 1565               	.LSM238:
 1566 0098 80E0      		ldi r24,hi8(Scheduler_TaskList+12)
 1567 009a C030      		cpi r28,lo8(Scheduler_TaskList+12)
 1568 009c D807      		cpc r29,r24
 1569 009e 01F4      		brne .L171
 1570 00a0 2C97      		sbiw r28,12
 1571 00a2 00C0      		rjmp .L173
 1572               	.LBE85:
 1573               	.LBE82:
 1574               	.LBE81:
 1575               	.LFE34:
 1577               	.global	Scheduler_TaskList
 1578               		.data
 1581               	Scheduler_TaskList:
 1582 0000 0000      		.word	gs(USB_USBTask)
 1583 0002 00        		.byte	0
 1584 0003 00        		.skip 1,0
 1585 0004 0000      		.word	gs(CDC_Task)
 1586 0006 00        		.byte	0
 1587 0007 00        		.skip 1,0
 1588 0008 0000      		.word	gs(Main_Task)
 1589 000a 00        		.byte	0
 1590 000b 00        		.skip 1,0
 1591               	.global	LineCoding
 1594               	LineCoding:
 1595 000c 80        		.byte	-128
 1596 000d 25        		.byte	37
 1597 000e 00        		.byte	0
 1598 000f 00        		.byte	0
 1599 0010 00        		.byte	0
 1600 0011 00        		.byte	0
 1601 0012 08        		.byte	8
 1602               	.global	LMS_Ctrl_Packet_Tx
 1605               	LMS_Ctrl_Packet_Tx:
 1606 0013 0000      		.word	tx_buff
 1607               	.global	LMS_Ctrl_Packet_Rx
 1610               	LMS_Ctrl_Packet_Rx:
 1611 0015 0000      		.word	rx_buff
 1612               		.comm Rx_Buffer,133,1
 1613               		.comm Tx_Buffer,133,1
 1614               		.comm tx_buff,64,1
 1615               		.comm rx_buff,64,1
 1616               		.comm count,1,1
 1617               		.comm reg_idx,1,1
 1618               		.comm Exp_board_id,1,1
 1731               	.Letext0:
DEFINED SYMBOLS
                            *ABS*:00000000 zipper.c
C:\DOCUME~1\Dovydas\LOCALS~1\Temp/cczGaWFb.s:2      *ABS*:0000003f __SREG__
C:\DOCUME~1\Dovydas\LOCALS~1\Temp/cczGaWFb.s:3      *ABS*:0000003e __SP_H__
C:\DOCUME~1\Dovydas\LOCALS~1\Temp/cczGaWFb.s:4      *ABS*:0000003d __SP_L__
C:\DOCUME~1\Dovydas\LOCALS~1\Temp/cczGaWFb.s:5      *ABS*:00000034 __CCP__
C:\DOCUME~1\Dovydas\LOCALS~1\Temp/cczGaWFb.s:6      *ABS*:00000000 __tmp_reg__
C:\DOCUME~1\Dovydas\LOCALS~1\Temp/cczGaWFb.s:7      *ABS*:00000001 __zero_reg__
C:\DOCUME~1\Dovydas\LOCALS~1\Temp/cczGaWFb.s:19     .text.Reconfigure_SPI_for_LMS:00000000 Reconfigure_SPI_for_LMS
C:\DOCUME~1\Dovydas\LOCALS~1\Temp/cczGaWFb.s:1594   .data:0000000c LineCoding
C:\DOCUME~1\Dovydas\LOCALS~1\Temp/cczGaWFb.s:147    .text.Delay_us:00000000 Delay_us
C:\DOCUME~1\Dovydas\LOCALS~1\Temp/cczGaWFb.s:183    .text.Check_many_blocks:00000000 Check_many_blocks
C:\DOCUME~1\Dovydas\LOCALS~1\Temp/cczGaWFb.s:1610   .data:00000015 LMS_Ctrl_Packet_Rx
C:\DOCUME~1\Dovydas\LOCALS~1\Temp/cczGaWFb.s:1605   .data:00000013 LMS_Ctrl_Packet_Tx
C:\DOCUME~1\Dovydas\LOCALS~1\Temp/cczGaWFb.s:216    .text.Search_reg_idx:00000000 Search_reg_idx
                            *COM*:00000001 reg_idx
C:\DOCUME~1\Dovydas\LOCALS~1\Temp/cczGaWFb.s:263    .text.Exp_board_detection:00000000 Exp_board_detection
                            *COM*:00000001 Exp_board_id
C:\DOCUME~1\Dovydas\LOCALS~1\Temp/cczGaWFb.s:326    .text.Main_Task:00000000 Main_Task
                            *COM*:00000085 Rx_Buffer
                            *COM*:00000001 count
                            *COM*:00000040 rx_buff
                            *COM*:00000040 tx_buff
                            *COM*:00000085 Tx_Buffer
C:\DOCUME~1\Dovydas\LOCALS~1\Temp/cczGaWFb.s:1119   .text.CDC_Task:00000000 CDC_Task
C:\DOCUME~1\Dovydas\LOCALS~1\Temp/cczGaWFb.s:1250   .text.EVENT_USB_UnhandledControlPacket:00000000 EVENT_USB_UnhandledControlPacket
C:\DOCUME~1\Dovydas\LOCALS~1\Temp/cczGaWFb.s:1353   .text.EVENT_USB_ConfigurationChanged:00000000 EVENT_USB_ConfigurationChanged
C:\DOCUME~1\Dovydas\LOCALS~1\Temp/cczGaWFb.s:1391   .text.EVENT_USB_Connect:00000000 EVENT_USB_Connect
C:\DOCUME~1\Dovydas\LOCALS~1\Temp/cczGaWFb.s:1409   .text.EVENT_USB_Disconnect:00000000 EVENT_USB_Disconnect
C:\DOCUME~1\Dovydas\LOCALS~1\Temp/cczGaWFb.s:1440   .text.main:00000000 main
C:\DOCUME~1\Dovydas\LOCALS~1\Temp/cczGaWFb.s:1581   .data:00000000 Scheduler_TaskList

UNDEFINED SYMBOLS
__udivmodqi4
MIPI_RFFE_Read
Buffer_GetElement
i2cSend
i2cReceive
__mulhi3
MIPI_RFFE_Write
Buffer_StoreElement
USB_IsConnected
USB_ControlRequest
Endpoint_Write_Control_Stream_LE
Endpoint_Read_Control_Stream_LE
Endpoint_ConfigureEndpoint_Prv
Scheduler_SetTaskMode
USB_USBTask
Buffer_Initialize
i2cInit
MIPI_RFFE_Init
Scheduler_TotalTasks
USB_Init
__do_copy_data
__do_clear_bss
