   1               		.file	"HIDParser.c"
   2               	__SREG__ = 0x3f
   3               	__SP_H__ = 0x3e
   4               	__SP_L__ = 0x3d
   5               	__CCP__  = 0x34
   6               	__tmp_reg__ = 0
   7               	__zero_reg__ = 1
  15               	.Ltext0:
  16               		.section	.text.USB_GetHIDReportItemInfo,"ax",@progbits
  17               	.global	USB_GetHIDReportItemInfo
  19               	USB_GetHIDReportItemInfo:
  20               	.LFB8:
  21               	.LSM0:
  22               	.LVL0:
  23 0000 CF92      		push r12
  24 0002 DF92      		push r13
  25 0004 EF92      		push r14
  26 0006 FF92      		push r15
  27 0008 0F93      		push r16
  28 000a 1F93      		push r17
  29 000c CF93      		push r28
  30 000e DF93      		push r29
  31               	/* prologue: function */
  32               	/* frame size = 0 */
  33 0010 6C01      		movw r12,r24
  34 0012 EB01      		movw r28,r22
  35               	.LSM1:
  36 0014 2885      		ldd r18,Y+8
  37               	.LSM2:
  38 0016 E880      		ld r14,Y
  39 0018 F980      		ldd r15,Y+1
  40               	.LVL1:
  41               	.LSM3:
  42 001a 1AA6      		std Y+42,__zero_reg__
  43 001c 1BA6      		std Y+43,__zero_reg__
  44 001e 1CA6      		std Y+44,__zero_reg__
  45 0020 1DA6      		std Y+45,__zero_reg__
  46               	.LSM4:
  47 0022 9D81      		ldd r25,Y+5
  48 0024 9923      		tst r25
  49 0026 01F0      		breq .L2
  50               	.LVL2:
  51               	.LSM5:
  52 0028 F601      		movw r30,r12
  53 002a 8081      		ld r24,Z
  54 002c 9817      		cp r25,r24
  55 002e 01F0      		breq .L3
  56 0030 80E0      		ldi r24,lo8(0)
  57 0032 00C0      		rjmp .L4
  58               	.L3:
  59               	.LSM6:
  60 0034 0894      		sec
  61 0036 C11C      		adc r12,__zero_reg__
  62 0038 D11C      		adc r13,__zero_reg__
  63               	.LVL3:
  64               	.L2:
  65               	.LSM7:
  66 003a 022F      		mov r16,r18
  67               	.LVL4:
  68 003c 10E0      		ldi r17,lo8(0)
  69               	.LVL5:
  70 003e 41E0      		ldi r20,lo8(1)
  71 0040 50E0      		ldi r21,hi8(1)
  72 0042 60E0      		ldi r22,hlo8(1)
  73 0044 70E0      		ldi r23,hhi8(1)
  74               	.LVL6:
  75 0046 00C0      		rjmp .L5
  76               	.L7:
  77               	.LSM8:
  78 0048 F701      		movw r30,r14
  79 004a 93E0      		ldi r25,3
  80 004c F695      	1:	lsr r31
  81 004e E795      		ror r30
  82 0050 9A95      		dec r25
  83 0052 01F4      		brne 1b
  84 0054 EC0D      		add r30,r12
  85 0056 FD1D      		adc r31,r13
  86 0058 8081      		ld r24,Z
  87 005a 90E0      		ldi r25,lo8(0)
  88 005c 9701      		movw r18,r14
  89 005e 2770      		andi r18,lo8(7)
  90 0060 3070      		andi r19,hi8(7)
  91 0062 00C0      		rjmp 2f
  92 0064 9595      	1:	asr r25
  93 0066 8795      		ror r24
  94 0068 2A95      	2:	dec r18
  95 006a 02F4      		brpl 1b
  96 006c 80FF      		sbrs r24,0
  97 006e 00C0      		rjmp .L6
  98               	.LSM9:
  99 0070 8AA5      		ldd r24,Y+42
 100 0072 9BA5      		ldd r25,Y+43
 101 0074 ACA5      		ldd r26,Y+44
 102 0076 BDA5      		ldd r27,Y+45
 103 0078 842B      		or r24,r20
 104 007a 952B      		or r25,r21
 105 007c A62B      		or r26,r22
 106 007e B72B      		or r27,r23
 107 0080 8AA7      		std Y+42,r24
 108 0082 9BA7      		std Y+43,r25
 109 0084 ACA7      		std Y+44,r26
 110 0086 BDA7      		std Y+45,r27
 111               	.L6:
 112               	.LSM10:
 113 0088 0894      		sec
 114 008a E11C      		adc r14,__zero_reg__
 115 008c F11C      		adc r15,__zero_reg__
 116               	.LSM11:
 117 008e 440F      		lsl r20
 118 0090 551F      		rol r21
 119 0092 661F      		rol r22
 120 0094 771F      		rol r23
 121 0096 0150      		subi r16,lo8(-(-1))
 122 0098 1040      		sbci r17,hi8(-(-1))
 123               	.LVL7:
 124               	.L5:
 125               	.LSM12:
 126 009a 0115      		cp r16,__zero_reg__
 127 009c 1105      		cpc r17,__zero_reg__
 128 009e 01F4      		brne .L7
 129 00a0 81E0      		ldi r24,lo8(1)
 130               	.L4:
 131               	/* epilogue start */
 132               	.LSM13:
 133 00a2 DF91      		pop r29
 134 00a4 CF91      		pop r28
 135               	.LVL8:
 136 00a6 1F91      		pop r17
 137               	.LVL9:
 138 00a8 0F91      		pop r16
 139               	.LVL10:
 140 00aa FF90      		pop r15
 141 00ac EF90      		pop r14
 142               	.LVL11:
 143 00ae DF90      		pop r13
 144 00b0 CF90      		pop r12
 145               	.LVL12:
 146 00b2 0895      		ret
 147               	.LFE8:
 149               		.section	.text.USB_SetHIDReportItemInfo,"ax",@progbits
 150               	.global	USB_SetHIDReportItemInfo
 152               	USB_SetHIDReportItemInfo:
 153               	.LFB9:
 154               	.LSM14:
 155               	.LVL13:
 156 0000 8F92      		push r8
 157 0002 9F92      		push r9
 158 0004 AF92      		push r10
 159 0006 BF92      		push r11
 160 0008 CF92      		push r12
 161 000a DF92      		push r13
 162 000c EF92      		push r14
 163 000e FF92      		push r15
 164 0010 0F93      		push r16
 165 0012 1F93      		push r17
 166 0014 CF93      		push r28
 167 0016 DF93      		push r29
 168               	/* prologue: function */
 169               	/* frame size = 0 */
 170 0018 5C01      		movw r10,r24
 171 001a 6B01      		movw r12,r22
 172               	.LSM15:
 173 001c FB01      		movw r30,r22
 174 001e 9085      		ldd r25,Z+8
 175               	.LSM16:
 176 0020 6081      		ld r22,Z
 177 0022 7181      		ldd r23,Z+1
 178               	.LVL14:
 179               	.LSM17:
 180 0024 8581      		ldd r24,Z+5
 181               	.LVL15:
 182 0026 8823      		tst r24
 183 0028 01F0      		breq .L10
 184               	.LSM18:
 185 002a F501      		movw r30,r10
 186 002c 8193      		st Z+,r24
 187 002e 5F01      		movw r10,r30
 188               	.L10:
 189               	.LSM19:
 190 0030 C92F      		mov r28,r25
 191               	.LVL16:
 192 0032 D0E0      		ldi r29,lo8(0)
 193               	.LVL17:
 194 0034 51E0      		ldi r21,lo8(1)
 195 0036 E52E      		mov r14,r21
 196 0038 F12C      		mov r15,__zero_reg__
 197 003a 012D      		mov r16,__zero_reg__
 198 003c 112D      		mov r17,__zero_reg__
 199               	.LVL18:
 200               	.LSM20:
 201 003e 41E0      		ldi r20,lo8(1)
 202 0040 842E      		mov r8,r20
 203 0042 912C      		mov r9,__zero_reg__
 204 0044 00C0      		rjmp .L11
 205               	.L13:
 206 0046 CB01      		movw r24,r22
 207 0048 8770      		andi r24,lo8(7)
 208 004a 9070      		andi r25,hi8(7)
 209 004c 9401      		movw r18,r8
 210 004e 00C0      		rjmp 2f
 211 0050 220F      	1:	lsl r18
 212 0052 331F      		rol r19
 213 0054 8A95      	2:	dec r24
 214 0056 02F4      		brpl 1b
 215 0058 C901      		movw r24,r18
 216 005a AA27      		clr r26
 217 005c 97FD      		sbrc r25,7
 218 005e A095      		com r26
 219 0060 BA2F      		mov r27,r26
 220 0062 F601      		movw r30,r12
 221 0064 22A5      		ldd r18,Z+42
 222 0066 33A5      		ldd r19,Z+43
 223 0068 44A5      		ldd r20,Z+44
 224 006a 55A5      		ldd r21,Z+45
 225 006c 8223      		and r24,r18
 226 006e 9323      		and r25,r19
 227 0070 A423      		and r26,r20
 228 0072 B523      		and r27,r21
 229 0074 0097      		sbiw r24,0
 230 0076 A105      		cpc r26,__zero_reg__
 231 0078 B105      		cpc r27,__zero_reg__
 232 007a 01F0      		breq .L12
 233               	.LSM21:
 234 007c FB01      		movw r30,r22
 235 007e 33E0      		ldi r19,3
 236 0080 F695      	1:	lsr r31
 237 0082 E795      		ror r30
 238 0084 3A95      		dec r19
 239 0086 01F4      		brne 1b
 240 0088 EA0D      		add r30,r10
 241 008a FB1D      		adc r31,r11
 242 008c 8081      		ld r24,Z
 243 008e 8E29      		or r24,r14
 244 0090 8083      		st Z,r24
 245               	.L12:
 246               	.LSM22:
 247 0092 6F5F      		subi r22,lo8(-(1))
 248 0094 7F4F      		sbci r23,hi8(-(1))
 249               	.LSM23:
 250 0096 EE0C      		lsl r14
 251 0098 FF1C      		rol r15
 252 009a 001F      		rol r16
 253 009c 111F      		rol r17
 254 009e 2197      		sbiw r28,1
 255               	.LVL19:
 256               	.L11:
 257               	.LSM24:
 258 00a0 2097      		sbiw r28,0
 259 00a2 01F4      		brne .L13
 260               	/* epilogue start */
 261               	.LSM25:
 262 00a4 DF91      		pop r29
 263               	.LVL20:
 264 00a6 CF91      		pop r28
 265               	.LVL21:
 266 00a8 1F91      		pop r17
 267 00aa 0F91      		pop r16
 268 00ac FF90      		pop r15
 269 00ae EF90      		pop r14
 270               	.LVL22:
 271 00b0 DF90      		pop r13
 272 00b2 CF90      		pop r12
 273               	.LVL23:
 274 00b4 BF90      		pop r11
 275 00b6 AF90      		pop r10
 276               	.LVL24:
 277 00b8 9F90      		pop r9
 278 00ba 8F90      		pop r8
 279 00bc 0895      		ret
 280               	.LFE9:
 282               		.section	.text.USB_ProcessHIDReport,"ax",@progbits
 283               	.global	USB_ProcessHIDReport
 285               	USB_ProcessHIDReport:
 286               	.LFB7:
 287               	.LSM26:
 288               	.LVL25:
 289 0000 2F92      		push r2
 290 0002 3F92      		push r3
 291 0004 4F92      		push r4
 292 0006 5F92      		push r5
 293 0008 6F92      		push r6
 294 000a 7F92      		push r7
 295 000c 8F92      		push r8
 296 000e 9F92      		push r9
 297 0010 AF92      		push r10
 298 0012 BF92      		push r11
 299 0014 CF92      		push r12
 300 0016 DF92      		push r13
 301 0018 EF92      		push r14
 302 001a FF92      		push r15
 303 001c 0F93      		push r16
 304 001e 1F93      		push r17
 305 0020 DF93      		push r29
 306 0022 CF93      		push r28
 307 0024 CDB7      		in r28,__SP_L__
 308 0026 DEB7      		in r29,__SP_H__
 309 0028 C259      		subi r28,lo8(-(-146))
 310 002a D040      		sbci r29,hi8(-(-146))
 311 002c 0FB6      		in __tmp_reg__,__SREG__
 312 002e F894      		cli
 313 0030 DEBF      		out __SP_H__,r29
 314 0032 0FBE      		out __SREG__,__tmp_reg__
 315 0034 CDBF      		out __SP_L__,r28
 316               	/* prologue: function */
 317               	/* frame size = 146 */
 318 0036 4C01      		movw r8,r24
 319 0038 2B01      		movw r4,r22
 320 003a 5A01      		movw r10,r20
 321               	.LSM27:
 322 003c 80EB      		ldi r24,lo8(1456)
 323 003e 95E0      		ldi r25,hi8(1456)
 324               	.LVL26:
 325 0040 DA01      		movw r26,r20
 326 0042 FC01      		movw r30,r24
 327 0044 1D92      		st X+,__zero_reg__
 328 0046 3197      		sbiw r30,1
 329 0048 01F4      		brne .-6
 330               	.LSM28:
 331 004a FE01      		movw r30,r28
 332 004c 7196      		adiw r30,17
 333 004e 8CE6      		ldi r24,lo8(108)
 334 0050 DF01      		movw r26,r30
 335 0052 1D92      		st X+,__zero_reg__
 336 0054 8A95      	        dec r24
 337 0056 01F4      		brne .-6
 338               	.LBB2:
 339               	.LSM29:
 340 0058 9A01      		movw r18,r20
 341 005a 2B59      		subi r18,lo8(-(1381))
 342 005c 3A4F      		sbci r19,hi8(-(1381))
 343 005e CF57      		subi r28,lo8(-129)
 344 0060 DF4F      		sbci r29,hi8(-129)
 345 0062 3983      		std Y+1,r19
 346 0064 2883      		st Y,r18
 347 0066 C158      		subi r28,lo8(129)
 348 0068 D040      		sbci r29,hi8(129)
 349               	.LVL27:
 350               	.LBB3:
 351               	.LSM30:
 352 006a CA01      		movw r24,r20
 353 006c 8C58      		subi r24,lo8(-(1396))
 354 006e 9A4F      		sbci r25,hi8(-(1396))
 355 0070 C158      		subi r28,lo8(-127)
 356 0072 DF4F      		sbci r29,hi8(-127)
 357 0074 9983      		std Y+1,r25
 358 0076 8883      		st Y,r24
 359 0078 CF57      		subi r28,lo8(127)
 360 007a D040      		sbci r29,hi8(127)
 361               	.LVL28:
 362               	.LSM31:
 363 007c DA01      		movw r26,r20
 364 007e A055      		subi r26,lo8(-(1456))
 365 0080 BA4F      		sbci r27,hi8(-(1456))
 366 0082 C957      		subi r28,lo8(-135)
 367 0084 DF4F      		sbci r29,hi8(-135)
 368 0086 B983      		std Y+1,r27
 369 0088 A883      		st Y,r26
 370 008a C758      		subi r28,lo8(135)
 371 008c D040      		sbci r29,hi8(135)
 372               	.LSM32:
 373 008e 0F96      		adiw r24,15
 374 0090 EF96      		adiw r28,125-62
 375 0092 9FAF      		std Y+63,r25
 376 0094 8EAF      		std Y+62,r24
 377 0096 EF97      		sbiw r28,125-62
 378               	.LVL29:
 379 0098 6F01      		movw r12,r30
 380               	.LVL30:
 381 009a 3324      		clr r3
 382               	.LVL31:
 383 009c CB57      		subi r28,lo8(-133)
 384 009e DF4F      		sbci r29,hi8(-133)
 385 00a0 1982      		std Y+1,__zero_reg__
 386 00a2 1882      		st Y,__zero_reg__
 387 00a4 C558      		subi r28,lo8(133)
 388 00a6 D040      		sbci r29,hi8(133)
 389               	.LVL32:
 390 00a8 CD57      		subi r28,lo8(-131)
 391 00aa DF4F      		sbci r29,hi8(-131)
 392 00ac 1982      		std Y+1,__zero_reg__
 393 00ae 1882      		st Y,__zero_reg__
 394 00b0 C358      		subi r28,lo8(131)
 395 00b2 D040      		sbci r29,hi8(131)
 396               	.LVL33:
 397 00b4 6624      		clr r6
 398 00b6 7724      		clr r7
 399               	.LVL34:
 400               	.LBE3:
 401               	.LSM33:
 402 00b8 FE01      		movw r30,r28
 403 00ba E358      		subi r30,lo8(-(125))
 404 00bc FF4F      		sbci r31,hi8(-(125))
 405 00be C157      		subi r28,lo8(-143)
 406 00c0 DF4F      		sbci r29,hi8(-143)
 407 00c2 F983      		std Y+1,r31
 408 00c4 E883      		st Y,r30
 409 00c6 CF58      		subi r28,lo8(143)
 410 00c8 D040      		sbci r29,hi8(143)
 411               	.LSM34:
 412 00ca CF56      		subi r28,lo8(-145)
 413 00cc DF4F      		sbci r29,hi8(-145)
 414 00ce D982      		std Y+1,r13
 415 00d0 C882      		st Y,r12
 416 00d2 C159      		subi r28,lo8(145)
 417 00d4 D040      		sbci r29,hi8(145)
 418               	.LBB4:
 419               	.LSM35:
 420 00d6 9A01      		movw r18,r20
 421 00d8 2F57      		subi r18,lo8(-(1409))
 422 00da 3A4F      		sbci r19,hi8(-(1409))
 423 00dc C357      		subi r28,lo8(-141)
 424 00de DF4F      		sbci r29,hi8(-141)
 425 00e0 3983      		std Y+1,r19
 426 00e2 2883      		st Y,r18
 427 00e4 CD58      		subi r28,lo8(141)
 428 00e6 D040      		sbci r29,hi8(141)
 429 00e8 00C0      		rjmp .L83
 430               	.LVL35:
 431               	.L79:
 432               	.LBE4:
 433               	.LSM36:
 434 00ea D401      		movw r26,r8
 435 00ec 8C91      		ld r24,X
 436 00ee 282F      		mov r18,r24
 437 00f0 30E0      		ldi r19,lo8(0)
 438 00f2 C901      		movw r24,r18
 439 00f4 8370      		andi r24,lo8(3)
 440 00f6 9070      		andi r25,hi8(3)
 441 00f8 8230      		cpi r24,2
 442 00fa 9105      		cpc r25,__zero_reg__
 443 00fc 01F0      		breq .L19
 444 00fe 8330      		cpi r24,3
 445 0100 9105      		cpc r25,__zero_reg__
 446 0102 01F0      		breq .L20
 447 0104 0197      		sbiw r24,1
 448 0106 01F0      		breq .L18
 449 0108 EE24      		clr r14
 450 010a FF24      		clr r15
 451 010c 8701      		movw r16,r14
 452               	.LVL36:
 453 010e 00C0      		rjmp .L21
 454               	.L20:
 455               	.LSM37:
 456 0110 F401      		movw r30,r8
 457 0112 E180      		ldd r14,Z+1
 458 0114 F280      		ldd r15,Z+2
 459 0116 0381      		ldd r16,Z+3
 460 0118 1481      		ldd r17,Z+4
 461               	.LVL37:
 462 011a 00C0      		rjmp .L21
 463               	.L19:
 464               	.LSM38:
 465 011c D401      		movw r26,r8
 466 011e 1196      		adiw r26,1
 467 0120 8D91      		ld r24,X+
 468 0122 9C91      		ld r25,X
 469 0124 1297      		sbiw r26,1+1
 470 0126 7C01      		movw r14,r24
 471               	.LVL38:
 472 0128 00C0      		rjmp .L85
 473               	.L18:
 474               	.LSM39:
 475 012a F401      		movw r30,r8
 476 012c 8181      		ldd r24,Z+1
 477 012e E82E      		mov r14,r24
 478 0130 FF24      		clr r15
 479               	.L85:
 480 0132 00E0      		ldi r16,lo8(0)
 481 0134 10E0      		ldi r17,hi8(0)
 482               	.L21:
 483               	.LSM40:
 484 0136 C901      		movw r24,r18
 485 0138 8C7F      		andi r24,lo8(252)
 486 013a 9070      		andi r25,hi8(252)
 487 013c 8436      		cpi r24,100
 488 013e 9105      		cpc r25,__zero_reg__
 489 0140 01F4      		brne .+2
 490 0142 00C0      		rjmp .L32
 491 0144 8536      		cpi r24,101
 492 0146 9105      		cpc r25,__zero_reg__
 493 0148 04F4      		brge .L41
 494 014a 8432      		cpi r24,36
 495 014c 9105      		cpc r25,__zero_reg__
 496 014e 01F4      		brne .+2
 497 0150 00C0      		rjmp .L27
 498 0152 8532      		cpi r24,37
 499 0154 9105      		cpc r25,__zero_reg__
 500 0156 04F4      		brge .L42
 501 0158 8830      		cpi r24,8
 502 015a 9105      		cpc r25,__zero_reg__
 503 015c 01F4      		brne .+2
 504 015e 00C0      		rjmp .L24
 505 0160 8930      		cpi r24,9
 506 0162 9105      		cpc r25,__zero_reg__
 507 0164 04F4      		brge .L43
 508 0166 0497      		sbiw r24,4
 509 0168 01F0      		breq .+2
 510 016a 00C0      		rjmp .L22
 511 016c 00C0      		rjmp .L87
 512               	.L43:
 513 016e 8431      		cpi r24,20
 514 0170 9105      		cpc r25,__zero_reg__
 515 0172 01F4      		brne .+2
 516 0174 00C0      		rjmp .L25
 517 0176 4897      		sbiw r24,24
 518 0178 01F0      		breq .+2
 519 017a 00C0      		rjmp .L22
 520 017c 00C0      		rjmp .L88
 521               	.L42:
 522 017e 8433      		cpi r24,52
 523 0180 9105      		cpc r25,__zero_reg__
 524 0182 01F4      		brne .+2
 525 0184 00C0      		rjmp .L29
 526 0186 8533      		cpi r24,53
 527 0188 9105      		cpc r25,__zero_reg__
 528 018a 04F4      		brge .L44
 529 018c 8897      		sbiw r24,40
 530 018e 01F0      		breq .+2
 531 0190 00C0      		rjmp .L22
 532 0192 00C0      		rjmp .L89
 533               	.L44:
 534 0194 8434      		cpi r24,68
 535 0196 9105      		cpc r25,__zero_reg__
 536 0198 01F4      		brne .+2
 537 019a 00C0      		rjmp .L30
 538 019c 8435      		cpi r24,84
 539 019e 9105      		cpc r25,__zero_reg__
 540 01a0 01F0      		breq .+2
 541 01a2 00C0      		rjmp .L22
 542 01a4 00C0      		rjmp .L90
 543               	.L41:
 544 01a6 8439      		cpi r24,148
 545 01a8 9105      		cpc r25,__zero_reg__
 546 01aa 01F4      		brne .+2
 547 01ac 00C0      		rjmp .L36
 548 01ae 8539      		cpi r24,149
 549 01b0 9105      		cpc r25,__zero_reg__
 550 01b2 04F4      		brge .L45
 551 01b4 8038      		cpi r24,128
 552 01b6 9105      		cpc r25,__zero_reg__
 553 01b8 01F0      		breq .L34
 554 01ba 8138      		cpi r24,129
 555 01bc 9105      		cpc r25,__zero_reg__
 556 01be 04F4      		brge .L46
 557 01c0 8437      		cpi r24,116
 558 01c2 9105      		cpc r25,__zero_reg__
 559 01c4 01F0      		breq .+2
 560 01c6 00C0      		rjmp .L22
 561 01c8 00C0      		rjmp .L91
 562               	.L46:
 563 01ca 8438      		cpi r24,132
 564 01cc 9105      		cpc r25,__zero_reg__
 565 01ce 01F4      		brne .+2
 566 01d0 00C0      		rjmp .L35
 567 01d2 8039      		cpi r24,144
 568 01d4 9105      		cpc r25,__zero_reg__
 569 01d6 01F0      		breq .+2
 570 01d8 00C0      		rjmp .L22
 571 01da 00C0      		rjmp .L34
 572               	.L45:
 573 01dc 843A      		cpi r24,164
 574 01de 9105      		cpc r25,__zero_reg__
 575 01e0 01F0      		breq .L38
 576 01e2 853A      		cpi r24,165
 577 01e4 9105      		cpc r25,__zero_reg__
 578 01e6 04F4      		brge .L47
 579 01e8 803A      		cpi r24,160
 580 01ea 9105      		cpc r25,__zero_reg__
 581 01ec 01F0      		breq .+2
 582 01ee 00C0      		rjmp .L22
 583 01f0 00C0      		rjmp .L92
 584               	.L47:
 585 01f2 843B      		cpi r24,180
 586 01f4 9105      		cpc r25,__zero_reg__
 587 01f6 01F0      		breq .L39
 588 01f8 803C      		cpi r24,192
 589 01fa 9105      		cpc r25,__zero_reg__
 590 01fc 01F0      		breq .+2
 591 01fe 00C0      		rjmp .L22
 592 0200 00C0      		rjmp .L93
 593               	.L34:
 594               	.LBB5:
 595               	.LBB6:
 596               	.LSM41:
 597 0202 C757      		subi r28,lo8(-137)
 598 0204 DF4F      		sbci r29,hi8(-137)
 599 0206 C882      		st Y,r12
 600 0208 C958      		subi r28,lo8(137)
 601 020a D040      		sbci r29,hi8(137)
 602 020c C657      		subi r28,lo8(-138)
 603 020e DF4F      		sbci r29,hi8(-138)
 604 0210 D882      		st Y,r13
 605 0212 CA58      		subi r28,lo8(138)
 606 0214 D040      		sbci r29,hi8(138)
 607 0216 2224      		clr r2
 608               	.LSM42:
 609 0218 9701      		movw r18,r14
 610               	.LVL39:
 611 021a 2170      		andi r18,lo8(1)
 612 021c 3070      		andi r19,hi8(1)
 613 021e C557      		subi r28,lo8(-139)
 614 0220 DF4F      		sbci r29,hi8(-139)
 615 0222 3983      		std Y+1,r19
 616 0224 2883      		st Y,r18
 617 0226 CB58      		subi r28,lo8(139)
 618 0228 D040      		sbci r29,hi8(139)
 619 022a 00C0      		rjmp .L48
 620               	.LVL40:
 621               	.L38:
 622               	.LBE6:
 623               	.LBE5:
 624               	.LSM43:
 625 022c C157      		subi r28,lo8(-143)
 626 022e DF4F      		sbci r29,hi8(-143)
 627 0230 8881      		ld r24,Y
 628 0232 9981      		ldd r25,Y+1
 629 0234 CF58      		subi r28,lo8(143)
 630 0236 D040      		sbci r29,hi8(143)
 631 0238 C816      		cp r12,r24
 632 023a D906      		cpc r13,r25
 633 023c 01F4      		brne .L49
 634 023e 81E0      		ldi r24,lo8(1)
 635 0240 00C0      		rjmp .L50
 636               	.L49:
 637               	.LSM44:
 638 0242 D601      		movw r26,r12
 639 0244 9497      		sbiw r26,36
 640 0246 F601      		movw r30,r12
 641 0248 8EE2      		ldi r24,lo8(46)
 642               	.LVL41:
 643               	.L51:
 644 024a 0190      		ld r0,Z+
 645 024c 0D92      		st X+,r0
 646 024e 8150      		subi r24,lo8(-(-1))
 647 0250 01F4      		brne .L51
 648               	.LSM45:
 649 0252 A4E2      		ldi r26,lo8(36)
 650 0254 B0E0      		ldi r27,hi8(36)
 651 0256 CA0E      		add r12,r26
 652 0258 DB1E      		adc r13,r27
 653               	.LVL42:
 654 025a 00C0      		rjmp .L22
 655               	.L39:
 656               	.LSM46:
 657 025c CF56      		subi r28,lo8(-145)
 658 025e DF4F      		sbci r29,hi8(-145)
 659 0260 E881      		ld r30,Y
 660 0262 F981      		ldd r31,Y+1
 661 0264 C159      		subi r28,lo8(145)
 662 0266 D040      		sbci r29,hi8(145)
 663 0268 CE16      		cp r12,r30
 664 026a DF06      		cpc r13,r31
 665 026c 01F4      		brne .L52
 666 026e 82E0      		ldi r24,lo8(2)
 667 0270 00C0      		rjmp .L50
 668               	.L52:
 669               	.LSM47:
 670 0272 2CED      		ldi r18,lo8(-36)
 671 0274 3FEF      		ldi r19,hi8(-36)
 672 0276 C20E      		add r12,r18
 673 0278 D31E      		adc r13,r19
 674 027a 00C0      		rjmp .L22
 675               	.L87:
 676               	.LSM48:
 677 027c D601      		movw r26,r12
 678 027e 1296      		adiw r26,1+1
 679 0280 FC92      		st X,r15
 680 0282 EE92      		st -X,r14
 681 0284 1197      		sbiw r26,1
 682 0286 00C0      		rjmp .L22
 683               	.L25:
 684               	.LSM49:
 685 0288 F601      		movw r30,r12
 686 028a E28A      		std Z+18,r14
 687 028c F38A      		std Z+19,r15
 688 028e 048B      		std Z+20,r16
 689 0290 158B      		std Z+21,r17
 690 0292 00C0      		rjmp .L22
 691               	.L27:
 692               	.LSM50:
 693 0294 D601      		movw r26,r12
 694 0296 5696      		adiw r26,22
 695 0298 ED92      		st X+,r14
 696 029a FD92      		st X+,r15
 697 029c 0D93      		st X+,r16
 698 029e 1C93      		st X,r17
 699 02a0 5997      		sbiw r26,22+3
 700 02a2 00C0      		rjmp .L22
 701               	.L29:
 702               	.LSM51:
 703 02a4 F601      		movw r30,r12
 704 02a6 E28E      		std Z+26,r14
 705 02a8 F38E      		std Z+27,r15
 706 02aa 048F      		std Z+28,r16
 707 02ac 158F      		std Z+29,r17
 708 02ae 00C0      		rjmp .L22
 709               	.L30:
 710               	.LSM52:
 711 02b0 D601      		movw r26,r12
 712 02b2 5E96      		adiw r26,30
 713 02b4 ED92      		st X+,r14
 714 02b6 FD92      		st X+,r15
 715 02b8 0D93      		st X+,r16
 716 02ba 1C93      		st X,r17
 717 02bc 9197      		sbiw r26,30+3
 718 02be 00C0      		rjmp .L22
 719               	.L90:
 720               	.LSM53:
 721 02c0 F601      		movw r30,r12
 722 02c2 E18A      		std Z+17,r14
 723 02c4 00C0      		rjmp .L22
 724               	.L32:
 725               	.LSM54:
 726 02c6 D601      		movw r26,r12
 727 02c8 1D96      		adiw r26,13
 728 02ca ED92      		st X+,r14
 729 02cc FD92      		st X+,r15
 730 02ce 0D93      		st X+,r16
 731 02d0 1C93      		st X,r17
 732 02d2 5097      		sbiw r26,13+3
 733 02d4 00C0      		rjmp .L22
 734               	.L91:
 735               	.LSM55:
 736 02d6 F601      		movw r30,r12
 737 02d8 E082      		st Z,r14
 738 02da 00C0      		rjmp .L22
 739               	.L36:
 740               	.LSM56:
 741 02dc D601      		movw r26,r12
 742 02de 9296      		adiw r26,34
 743 02e0 EC92      		st X,r14
 744 02e2 00C0      		rjmp .L22
 745               	.L35:
 746               	.LSM57:
 747 02e4 F601      		movw r30,r12
 748 02e6 E3A2      		std Z+35,r14
 749 02e8 00C0      		rjmp .L22
 750               	.L24:
 751               	.LSM58:
 752 02ea F8E0      		ldi r31,lo8(8)
 753               	.LVL43:
 754 02ec 3F16      		cp r3,r31
 755 02ee 01F4      		brne .L53
 756 02f0 86E0      		ldi r24,lo8(6)
 757 02f2 00C0      		rjmp .L50
 758               	.L53:
 759               	.LSM59:
 760 02f4 E32D      		mov r30,r3
 761 02f6 F0E0      		ldi r31,lo8(0)
 762               	.LVL44:
 763 02f8 EE0F      		lsl r30
 764 02fa FF1F      		rol r31
 765               	.LVL45:
 766 02fc 21E0      		ldi r18,lo8(1)
 767 02fe 30E0      		ldi r19,hi8(1)
 768 0300 2C0F      		add r18,r28
 769 0302 3D1F      		adc r19,r29
 770 0304 E20F      		add r30,r18
 771 0306 F31F      		adc r31,r19
 772               	.LVL46:
 773 0308 F182      		std Z+1,r15
 774 030a E082      		st Z,r14
 775 030c 3394      		inc r3
 776               	.LVL47:
 777 030e 00C0      		rjmp .L22
 778               	.L88:
 779               	.LSM60:
 780 0310 D601      		movw r26,r12
 781 0312 1596      		adiw r26,5
 782 0314 ED92      		st X+,r14
 783 0316 FD92      		st X+,r15
 784 0318 0D93      		st X+,r16
 785 031a 1C93      		st X,r17
 786 031c 1897      		sbiw r26,5+3
 787 031e 00C0      		rjmp .L22
 788               	.L89:
 789               	.LSM61:
 790 0320 F601      		movw r30,r12
 791 0322 E186      		std Z+9,r14
 792 0324 F286      		std Z+10,r15
 793 0326 0387      		std Z+11,r16
 794 0328 1487      		std Z+12,r17
 795 032a 00C0      		rjmp .L22
 796               	.L92:
 797               	.LSM62:
 798 032c 6114      		cp r6,__zero_reg__
 799 032e 7104      		cpc r7,__zero_reg__
 800 0330 01F4      		brne .L54
 801 0332 CF57      		subi r28,lo8(-129)
 802 0334 DF4F      		sbci r29,hi8(-129)
 803 0336 6880      		ld r6,Y
 804 0338 7980      		ldd r7,Y+1
 805 033a C158      		subi r28,lo8(129)
 806 033c D040      		sbci r29,hi8(129)
 807 033e 00C0      		rjmp .L55
 808               	.L54:
 809               	.LBB9:
 810               	.LSM63:
 811 0340 C357      		subi r28,lo8(-141)
 812 0342 DF4F      		sbci r29,hi8(-141)
 813 0344 A881      		ld r26,Y
 814 0346 B981      		ldd r27,Y+1
 815 0348 CD58      		subi r28,lo8(141)
 816 034a D040      		sbci r29,hi8(141)
 817 034c 8D91      		ld r24,X+
 818 034e 9C91      		ld r25,X
 819 0350 892B      		or r24,r25
 820 0352 01F0      		breq .+2
 821 0354 00C0      		rjmp .L56
 822               	.LSM64:
 823 0356 C158      		subi r28,lo8(-127)
 824 0358 DF4F      		sbci r29,hi8(-127)
 825 035a E881      		ld r30,Y
 826 035c F981      		ldd r31,Y+1
 827 035e CF57      		subi r28,lo8(127)
 828 0360 D040      		sbci r29,hi8(127)
 829 0362 C957      		subi r28,lo8(-135)
 830 0364 DF4F      		sbci r29,hi8(-135)
 831 0366 2881      		ld r18,Y
 832 0368 3981      		ldd r19,Y+1
 833 036a C758      		subi r28,lo8(135)
 834 036c D040      		sbci r29,hi8(135)
 835 036e E217      		cp r30,r18
 836 0370 F307      		cpc r31,r19
 837 0372 01F4      		brne .L57
 838               	.LVL48:
 839 0374 85E0      		ldi r24,lo8(5)
 840 0376 00C0      		rjmp .L50
 841               	.L57:
 842               	.LSM65:
 843 0378 EF96      		adiw r28,125-62
 844 037a AEAD      		ldd r26,Y+62
 845 037c BFAD      		ldd r27,Y+63
 846 037e EF97      		sbiw r28,125-62
 847 0380 1E96      		adiw r26,13+1
 848 0382 7C92      		st X,r7
 849 0384 6E92      		st -X,r6
 850 0386 1D97      		sbiw r26,13
 851 0388 3D01      		movw r6,r26
 852               	.LVL49:
 853               	.L55:
 854               	.LBE9:
 855               	.LSM66:
 856 038a F301      		movw r30,r6
 857 038c E082      		st Z,r14
 858               	.LSM67:
 859 038e D601      		movw r26,r12
 860 0390 1196      		adiw r26,1
 861 0392 8D91      		ld r24,X+
 862 0394 9C91      		ld r25,X
 863 0396 1297      		sbiw r26,1+1
 864 0398 9283      		std Z+2,r25
 865 039a 8183      		std Z+1,r24
 866               	.LSM68:
 867 039c 3320      		tst r3
 868 039e 01F0      		breq .L58
 869               	.LSM69:
 870 03a0 8981      		ldd r24,Y+1
 871 03a2 9A81      		ldd r25,Y+2
 872 03a4 9483      		std Z+4,r25
 873 03a6 8383      		std Z+3,r24
 874 03a8 FE01      		movw r30,r28
 875 03aa 3196      		adiw r30,1
 876               	.LBB10:
 877               	.LSM70:
 878 03ac 232D      		mov r18,r3
 879 03ae 30E0      		ldi r19,lo8(0)
 880 03b0 220F      		lsl r18
 881 03b2 331F      		rol r19
 882 03b4 2E0F      		add r18,r30
 883 03b6 3F1F      		adc r19,r31
 884 03b8 00C0      		rjmp .L59
 885               	.L60:
 886               	.LSM71:
 887 03ba 8281      		ldd r24,Z+2
 888 03bc 9381      		ldd r25,Z+3
 889 03be 8193      		st Z+,r24
 890 03c0 9193      		st Z+,r25
 891               	.L59:
 892               	.LSM72:
 893 03c2 E217      		cp r30,r18
 894 03c4 F307      		cpc r31,r19
 895 03c6 01F4      		brne .L60
 896               	.LBE10:
 897               	.LSM73:
 898 03c8 3A94      		dec r3
 899 03ca 00C0      		rjmp .L22
 900               	.L58:
 901               	.LSM74:
 902 03cc D301      		movw r26,r6
 903 03ce 1496      		adiw r26,3+1
 904 03d0 1C92      		st X,__zero_reg__
 905 03d2 1E92      		st -X,__zero_reg__
 906 03d4 1397      		sbiw r26,3
 907 03d6 00C0      		rjmp .L22
 908               	.L93:
 909               	.LSM75:
 910 03d8 6114      		cp r6,__zero_reg__
 911 03da 7104      		cpc r7,__zero_reg__
 912 03dc 01F4      		brne .L61
 913 03de 84E0      		ldi r24,lo8(4)
 914 03e0 00C0      		rjmp .L50
 915               	.L61:
 916               	.LSM76:
 917 03e2 F301      		movw r30,r6
 918 03e4 6584      		ldd r6,Z+13
 919 03e6 7684      		ldd r7,Z+14
 920 03e8 00C0      		rjmp .L22
 921               	.LVL50:
 922               	.L72:
 923               	.LBB11:
 924               	.LBB8:
 925               	.LSM77:
 926 03ea D501      		movw r26,r10
 927 03ec 4C91      		ld r20,X
 928               	.LSM78:
 929 03ee 4E31      		cpi r20,lo8(30)
 930 03f0 01F4      		brne .L62
 931 03f2 83E0      		ldi r24,lo8(3)
 932 03f4 00C0      		rjmp .L50
 933               	.L62:
 934               	.LSM79:
 935 03f6 842F      		mov r24,r20
 936 03f8 90E0      		ldi r25,lo8(0)
 937 03fa 6EE2      		ldi r22,lo8(46)
 938 03fc 70E0      		ldi r23,hi8(46)
 939 03fe 0E94 0000 		call __mulhi3
 940 0402 FC01      		movw r30,r24
 941 0404 3996      		adiw r30,9
 942 0406 EA0D      		add r30,r10
 943 0408 FB1D      		adc r31,r11
 944 040a C757      		subi r28,lo8(-137)
 945 040c DF4F      		sbci r29,hi8(-137)
 946 040e 8881      		ld r24,Y
 947 0410 C958      		subi r28,lo8(137)
 948 0412 D040      		sbci r29,hi8(137)
 949 0414 C657      		subi r28,lo8(-138)
 950 0416 DF4F      		sbci r29,hi8(-138)
 951 0418 9881      		ld r25,Y
 952 041a CA58      		subi r28,lo8(138)
 953 041c D040      		sbci r29,hi8(138)
 954 041e 9C01      		movw r18,r24
 955 0420 D901      		movw r26,r18
 956 0422 82E2      		ldi r24,lo8(34)
 957               	.L63:
 958 0424 0D90      		ld r0,X+
 959 0426 0192      		st Z+,r0
 960 0428 8150      		subi r24,lo8(-(-1))
 961 042a 01F4      		brne .L63
 962               	.LSM80:
 963 042c 842F      		mov r24,r20
 964 042e 90E0      		ldi r25,lo8(0)
 965 0430 6EE2      		ldi r22,lo8(46)
 966 0432 70E0      		ldi r23,hi8(46)
 967 0434 0E94 0000 		call __mulhi3
 968 0438 F501      		movw r30,r10
 969 043a E80F      		add r30,r24
 970 043c F91F      		adc r31,r25
 971 043e F582      		std Z+5,r15
 972 0440 E482      		std Z+4,r14
 973               	.LSM81:
 974 0442 842F      		mov r24,r20
 975 0444 90E0      		ldi r25,lo8(0)
 976 0446 6EE2      		ldi r22,lo8(46)
 977 0448 70E0      		ldi r23,hi8(46)
 978 044a 0E94 0000 		call __mulhi3
 979 044e F501      		movw r30,r10
 980 0450 E80F      		add r30,r24
 981 0452 F91F      		adc r31,r25
 982 0454 7086      		std Z+8,r7
 983 0456 6782      		std Z+7,r6
 984               	.LSM82:
 985 0458 842F      		mov r24,r20
 986 045a 90E0      		ldi r25,lo8(0)
 987 045c 6EE2      		ldi r22,lo8(46)
 988 045e 70E0      		ldi r23,hi8(46)
 989 0460 0E94 0000 		call __mulhi3
 990 0464 F501      		movw r30,r10
 991 0466 E80F      		add r30,r24
 992 0468 F91F      		adc r31,r25
 993 046a D601      		movw r26,r12
 994 046c 9396      		adiw r26,35
 995 046e 8C91      		ld r24,X
 996 0470 8683      		std Z+6,r24
 997               	.LSM83:
 998 0472 3320      		tst r3
 999 0474 01F0      		breq .L64
 1000               	.LSM84:
 1001 0476 842F      		mov r24,r20
 1002 0478 90E0      		ldi r25,lo8(0)
 1003 047a 6EE2      		ldi r22,lo8(46)
 1004 047c 70E0      		ldi r23,hi8(46)
 1005 047e 0E94 0000 		call __mulhi3
 1006 0482 F501      		movw r30,r10
 1007 0484 E80F      		add r30,r24
 1008 0486 F91F      		adc r31,r25
 1009 0488 8981      		ldd r24,Y+1
 1010 048a 9A81      		ldd r25,Y+2
 1011 048c 9587      		std Z+13,r25
 1012 048e 8487      		std Z+12,r24
 1013 0490 FE01      		movw r30,r28
 1014 0492 3196      		adiw r30,1
 1015               	.LBB7:
 1016               	.LSM85:
 1017 0494 232D      		mov r18,r3
 1018 0496 30E0      		ldi r19,lo8(0)
 1019 0498 220F      		lsl r18
 1020 049a 331F      		rol r19
 1021 049c 2E0F      		add r18,r30
 1022 049e 3F1F      		adc r19,r31
 1023 04a0 00C0      		rjmp .L65
 1024               	.L66:
 1025               	.LSM86:
 1026 04a2 8281      		ldd r24,Z+2
 1027 04a4 9381      		ldd r25,Z+3
 1028 04a6 8193      		st Z+,r24
 1029 04a8 9193      		st Z+,r25
 1030               	.L65:
 1031               	.LSM87:
 1032 04aa E217      		cp r30,r18
 1033 04ac F307      		cpc r31,r19
 1034 04ae 01F4      		brne .L66
 1035               	.LBE7:
 1036               	.LSM88:
 1037 04b0 3A94      		dec r3
 1038 04b2 00C0      		rjmp .L67
 1039               	.L64:
 1040               	.LSM89:
 1041 04b4 842F      		mov r24,r20
 1042 04b6 90E0      		ldi r25,lo8(0)
 1043 04b8 6EE2      		ldi r22,lo8(46)
 1044 04ba 70E0      		ldi r23,hi8(46)
 1045 04bc 0E94 0000 		call __mulhi3
 1046 04c0 F501      		movw r30,r10
 1047 04c2 E80F      		add r30,r24
 1048 04c4 F91F      		adc r31,r25
 1049 04c6 1586      		std Z+13,__zero_reg__
 1050 04c8 1486      		std Z+12,__zero_reg__
 1051               	.L67:
 1052               	.LSM90:
 1053 04ca D401      		movw r26,r8
 1054 04cc 8C91      		ld r24,X
 1055 04ce 90E0      		ldi r25,lo8(0)
 1056 04d0 807F      		andi r24,lo8(240)
 1057 04d2 9070      		andi r25,hi8(240)
 1058 04d4 8038      		cpi r24,128
 1059 04d6 9105      		cpc r25,__zero_reg__
 1060 04d8 01F0      		breq .L69
 1061 04da 8039      		cpi r24,144
 1062 04dc 9105      		cpc r25,__zero_reg__
 1063 04de 01F0      		breq .+2
 1064 04e0 00C0      		rjmp .L68
 1065 04e2 00C0      		rjmp .L94
 1066               	.L69:
 1067               	.LSM91:
 1068 04e4 842F      		mov r24,r20
 1069 04e6 90E0      		ldi r25,lo8(0)
 1070 04e8 67E1      		ldi r22,lo8(23)
 1071 04ea 70E0      		ldi r23,hi8(23)
 1072 04ec 0E94 0000 		call __mulhi3
 1073 04f0 FC01      		movw r30,r24
 1074 04f2 3196      		adiw r30,1
 1075 04f4 EE0F      		lsl r30
 1076 04f6 FF1F      		rol r31
 1077 04f8 EA0D      		add r30,r10
 1078 04fa FB1D      		adc r31,r11
 1079 04fc 1182      		std Z+1,__zero_reg__
 1080               	.LSM92:
 1081 04fe 842F      		mov r24,r20
 1082 0500 90E0      		ldi r25,lo8(0)
 1083 0502 6EE2      		ldi r22,lo8(46)
 1084 0504 70E0      		ldi r23,hi8(46)
 1085 0506 0E94 0000 		call __mulhi3
 1086 050a F501      		movw r30,r10
 1087 050c E80F      		add r30,r24
 1088 050e F91F      		adc r31,r25
 1089 0510 CB57      		subi r28,lo8(-133)
 1090 0512 DF4F      		sbci r29,hi8(-133)
 1091 0514 2881      		ld r18,Y
 1092 0516 3981      		ldd r19,Y+1
 1093 0518 C558      		subi r28,lo8(133)
 1094 051a D040      		sbci r29,hi8(133)
 1095 051c 3283      		std Z+2,r19
 1096 051e 2183      		std Z+1,r18
 1097               	.LSM93:
 1098 0520 D601      		movw r26,r12
 1099 0522 8C91      		ld r24,X
 1100 0524 280F      		add r18,r24
 1101 0526 311D      		adc r19,__zero_reg__
 1102 0528 CB57      		subi r28,lo8(-133)
 1103 052a DF4F      		sbci r29,hi8(-133)
 1104 052c 3983      		std Y+1,r19
 1105 052e 2883      		st Y,r18
 1106 0530 C558      		subi r28,lo8(133)
 1107 0532 D040      		sbci r29,hi8(133)
 1108               	.LVL51:
 1109 0534 00C0      		rjmp .L68
 1110               	.L94:
 1111               	.LSM94:
 1112 0536 842F      		mov r24,r20
 1113 0538 90E0      		ldi r25,lo8(0)
 1114 053a 67E1      		ldi r22,lo8(23)
 1115 053c 70E0      		ldi r23,hi8(23)
 1116 053e 0E94 0000 		call __mulhi3
 1117 0542 FC01      		movw r30,r24
 1118 0544 3196      		adiw r30,1
 1119 0546 EE0F      		lsl r30
 1120 0548 FF1F      		rol r31
 1121 054a EA0D      		add r30,r10
 1122 054c FB1D      		adc r31,r11
 1123 054e B1E0      		ldi r27,lo8(1)
 1124 0550 B183      		std Z+1,r27
 1125               	.LSM95:
 1126 0552 842F      		mov r24,r20
 1127 0554 90E0      		ldi r25,lo8(0)
 1128 0556 6EE2      		ldi r22,lo8(46)
 1129 0558 70E0      		ldi r23,hi8(46)
 1130 055a 0E94 0000 		call __mulhi3
 1131 055e F501      		movw r30,r10
 1132 0560 E80F      		add r30,r24
 1133 0562 F91F      		adc r31,r25
 1134 0564 CD57      		subi r28,lo8(-131)
 1135 0566 DF4F      		sbci r29,hi8(-131)
 1136 0568 2881      		ld r18,Y
 1137 056a 3981      		ldd r19,Y+1
 1138 056c C358      		subi r28,lo8(131)
 1139 056e D040      		sbci r29,hi8(131)
 1140 0570 3283      		std Z+2,r19
 1141 0572 2183      		std Z+1,r18
 1142               	.LSM96:
 1143 0574 D601      		movw r26,r12
 1144 0576 8C91      		ld r24,X
 1145 0578 280F      		add r18,r24
 1146 057a 311D      		adc r19,__zero_reg__
 1147 057c CD57      		subi r28,lo8(-131)
 1148 057e DF4F      		sbci r29,hi8(-131)
 1149 0580 3983      		std Y+1,r19
 1150 0582 2883      		st Y,r18
 1151 0584 C358      		subi r28,lo8(131)
 1152 0586 D040      		sbci r29,hi8(131)
 1153               	.LVL52:
 1154               	.L68:
 1155               	.LSM97:
 1156 0588 C557      		subi r28,lo8(-139)
 1157 058a DF4F      		sbci r29,hi8(-139)
 1158 058c E881      		ld r30,Y
 1159 058e F981      		ldd r31,Y+1
 1160 0590 CB58      		subi r28,lo8(139)
 1161 0592 D040      		sbci r29,hi8(139)
 1162 0594 EF2B      		or r30,r31
 1163 0596 01F4      		brne .L71
 1164               	.LSM98:
 1165 0598 D501      		movw r26,r10
 1166 059a 8C91      		ld r24,X
 1167 059c 8F5F      		subi r24,lo8(-(1))
 1168 059e 8C93      		st X,r24
 1169               	.L71:
 1170               	.LBE8:
 1171               	.LSM99:
 1172 05a0 2394      		inc r2
 1173               	.LVL53:
 1174               	.L48:
 1175 05a2 F601      		movw r30,r12
 1176 05a4 82A1      		ldd r24,Z+34
 1177 05a6 2816      		cp r2,r24
 1178 05a8 00F4      		brsh .+2
 1179 05aa 00C0      		rjmp .L72
 1180 05ac 3324      		clr r3
 1181               	.LVL54:
 1182               	.L22:
 1183               	.LBE11:
 1184               	.LSM100:
 1185 05ae D401      		movw r26,r8
 1186 05b0 8C91      		ld r24,X
 1187 05b2 8C70      		andi r24,lo8(12)
 1188 05b4 01F4      		brne .L73
 1189               	.LSM101:
 1190 05b6 F601      		movw r30,r12
 1191 05b8 1582      		std Z+5,__zero_reg__
 1192 05ba 1682      		std Z+6,__zero_reg__
 1193 05bc 1782      		std Z+7,__zero_reg__
 1194 05be 1086      		std Z+8,__zero_reg__
 1195               	.LSM102:
 1196 05c0 D601      		movw r26,r12
 1197 05c2 1996      		adiw r26,9
 1198 05c4 1D92      		st X+,__zero_reg__
 1199 05c6 1D92      		st X+,__zero_reg__
 1200 05c8 1D92      		st X+,__zero_reg__
 1201 05ca 1C92      		st X,__zero_reg__
 1202 05cc 1C97      		sbiw r26,9+3
 1203 05ce 3324      		clr r3
 1204               	.L73:
 1205               	.LSM103:
 1206 05d0 F401      		movw r30,r8
 1207 05d2 8081      		ld r24,Z
 1208 05d4 90E0      		ldi r25,lo8(0)
 1209 05d6 8370      		andi r24,lo8(3)
 1210 05d8 9070      		andi r25,hi8(3)
 1211 05da 8130      		cpi r24,1
 1212 05dc 9105      		cpc r25,__zero_reg__
 1213 05de 01F0      		breq .L75
 1214 05e0 8230      		cpi r24,2
 1215 05e2 9105      		cpc r25,__zero_reg__
 1216 05e4 04F4      		brge .L78
 1217 05e6 892B      		or r24,r25
 1218 05e8 01F0      		breq .L74
 1219 05ea 00C0      		rjmp .L83
 1220               	.L78:
 1221 05ec 8230      		cpi r24,2
 1222 05ee 9105      		cpc r25,__zero_reg__
 1223 05f0 01F0      		breq .L76
 1224 05f2 0397      		sbiw r24,3
 1225 05f4 01F4      		brne .L83
 1226               	.LSM104:
 1227 05f6 2BEF      		ldi r18,lo8(-5)
 1228 05f8 3FEF      		ldi r19,hi8(-5)
 1229 05fa 420E      		add r4,r18
 1230 05fc 531E      		adc r5,r19
 1231               	.LSM105:
 1232 05fe 85E0      		ldi r24,lo8(5)
 1233 0600 90E0      		ldi r25,hi8(5)
 1234 0602 00C0      		rjmp .L86
 1235               	.LVL55:
 1236               	.L76:
 1237               	.LSM106:
 1238 0604 ADEF      		ldi r26,lo8(-3)
 1239 0606 BFEF      		ldi r27,hi8(-3)
 1240 0608 4A0E      		add r4,r26
 1241 060a 5B1E      		adc r5,r27
 1242               	.LSM107:
 1243 060c E3E0      		ldi r30,lo8(3)
 1244 060e F0E0      		ldi r31,hi8(3)
 1245 0610 8E0E      		add r8,r30
 1246 0612 9F1E      		adc r9,r31
 1247 0614 00C0      		rjmp .L83
 1248               	.LVL56:
 1249               	.L75:
 1250               	.LSM108:
 1251 0616 2EEF      		ldi r18,lo8(-2)
 1252 0618 3FEF      		ldi r19,hi8(-2)
 1253 061a 420E      		add r4,r18
 1254 061c 531E      		adc r5,r19
 1255               	.LSM109:
 1256 061e 82E0      		ldi r24,lo8(2)
 1257 0620 90E0      		ldi r25,hi8(2)
 1258               	.L86:
 1259 0622 880E      		add r8,r24
 1260 0624 991E      		adc r9,r25
 1261 0626 00C0      		rjmp .L83
 1262               	.LVL57:
 1263               	.L74:
 1264               	.LSM110:
 1265 0628 0894      		sec
 1266 062a 4108      		sbc r4,__zero_reg__
 1267 062c 5108      		sbc r5,__zero_reg__
 1268               	.LSM111:
 1269 062e 0894      		sec
 1270 0630 811C      		adc r8,__zero_reg__
 1271 0632 911C      		adc r9,__zero_reg__
 1272               	.LVL58:
 1273               	.L83:
 1274               	.LBE2:
 1275               	.LSM112:
 1276 0634 4114      		cp r4,__zero_reg__
 1277 0636 5104      		cpc r5,__zero_reg__
 1278 0638 01F0      		breq .+2
 1279 063a 00C0      		rjmp .L79
 1280 063c 80E0      		ldi r24,lo8(0)
 1281               	.LVL59:
 1282               	.L50:
 1283               	/* epilogue start */
 1284               	.LSM113:
 1285 063e CE56      		subi r28,lo8(-(146))
 1286 0640 DF4F      		sbci r29,hi8(-(146))
 1287 0642 0FB6      		in __tmp_reg__,__SREG__
 1288 0644 F894      		cli
 1289 0646 DEBF      		out __SP_H__,r29
 1290 0648 0FBE      		out __SREG__,__tmp_reg__
 1291 064a CDBF      		out __SP_L__,r28
 1292 064c CF91      		pop r28
 1293 064e DF91      		pop r29
 1294 0650 1F91      		pop r17
 1295 0652 0F91      		pop r16
 1296               	.LVL60:
 1297 0654 FF90      		pop r15
 1298               	.LVL61:
 1299 0656 EF90      		pop r14
 1300               	.LVL62:
 1301 0658 DF90      		pop r13
 1302               	.LVL63:
 1303 065a CF90      		pop r12
 1304               	.LVL64:
 1305 065c BF90      		pop r11
 1306 065e AF90      		pop r10
 1307               	.LVL65:
 1308 0660 9F90      		pop r9
 1309 0662 8F90      		pop r8
 1310               	.LVL66:
 1311 0664 7F90      		pop r7
 1312 0666 6F90      		pop r6
 1313               	.LVL67:
 1314 0668 5F90      		pop r5
 1315 066a 4F90      		pop r4
 1316               	.LVL68:
 1317 066c 3F90      		pop r3
 1318               	.LVL69:
 1319 066e 2F90      		pop r2
 1320               	.LVL70:
 1321 0670 0895      		ret
 1322               	.LVL71:
 1323               	.L56:
 1324               	.L84:
 1325 0672 00C0      		rjmp .L84
 1326               	.LFE7:
 1368               	.Letext0:
DEFINED SYMBOLS
                            *ABS*:00000000 HIDParser.c
C:\DOCUME~1\Dovydas\LOCALS~1\Temp/ccCJ1tJl.s:2      *ABS*:0000003f __SREG__
C:\DOCUME~1\Dovydas\LOCALS~1\Temp/ccCJ1tJl.s:3      *ABS*:0000003e __SP_H__
C:\DOCUME~1\Dovydas\LOCALS~1\Temp/ccCJ1tJl.s:4      *ABS*:0000003d __SP_L__
C:\DOCUME~1\Dovydas\LOCALS~1\Temp/ccCJ1tJl.s:5      *ABS*:00000034 __CCP__
C:\DOCUME~1\Dovydas\LOCALS~1\Temp/ccCJ1tJl.s:6      *ABS*:00000000 __tmp_reg__
C:\DOCUME~1\Dovydas\LOCALS~1\Temp/ccCJ1tJl.s:7      *ABS*:00000001 __zero_reg__
C:\DOCUME~1\Dovydas\LOCALS~1\Temp/ccCJ1tJl.s:19     .text.USB_GetHIDReportItemInfo:00000000 USB_GetHIDReportItemInfo
C:\DOCUME~1\Dovydas\LOCALS~1\Temp/ccCJ1tJl.s:152    .text.USB_SetHIDReportItemInfo:00000000 USB_SetHIDReportItemInfo
C:\DOCUME~1\Dovydas\LOCALS~1\Temp/ccCJ1tJl.s:285    .text.USB_ProcessHIDReport:00000000 USB_ProcessHIDReport

UNDEFINED SYMBOLS
__mulhi3
